(dp1
S'shop'
p2
I317
sS'code'
p3
I77
sS'bomb'
p4
I37
sS'gold'
p5
I149
sS'dance'
p6
I96
sS'queen'
p7
I286
sS'alien'
p8
I3
sS'shoe'
p9
I316
sS'shot'
p10
I318
sS'chair'
p11
I64
sS'line'
p12
I199
sS'ground'
p13
I154
sS'giant'
p14
I146
sS'dice'
p15
I103
sS'scorpion'
p16
I307
sS'cloak'
p17
I75
sS'bug'
p18
I48
sS'charge'
p19
I66
sS'jam'
p20
I178
sS'millionarie'
p21
I218
sS'circle'
p22
I73
sS'pumpkin'
p23
I283
sS'plate'
p24
I269
sS'triangle'
p25
I374
sS'string'
p26
I348
sS'beat'
p27
I25
sS'watch'
p28
I389
sS'bear'
p29
I24
sS'wave'
p30
I391
sS'amazon'
p31
I5
sS'fan'
p32
I125
sS'jack'
p33
I177
sS'fall'
p34
I124
sS'cook'
p35
I84
sS'saturn'
p36
I303
sS'nurse'
p37
I238
sS'school'
p38
I305
sS'pistol'
p39
I264
sS'bar'
p40
I19
sS'organ'
p41
I246
sS'knight'
p42
I188
sS'button'
p43
I50
sS'dinosaur'
p44
I104
sS'microscope'
p45
I217
sS'paper'
p46
I250
sS'round'
p47
I299
sS'revolution'
p48
I290
sS'force'
p49
I137
sS'concert'
p50
I81
sS'fence'
p51
I126
sS'nut'
p52
I239
sS'horn'
p53
I167
sS'nail'
p54
I230
sS'lion'
p55
I201
sS'aztec'
p56
I14
sS'lawyer'
p57
I192
sS'seal'
p58
I310
sS'racket'
p59
I288
sS'bark'
p60
I20
sS'cat'
p61
I60
sS'port'
p62
I278
sS'superhero'
p63
I351
sS'sub'
p64
I349
sS'genious'
p65
I143
sS'poison'
p66
I274
sS'cell'
p67
I61
sS'mug'
p68
I229
sS'skyscraper'
p69
I320
sS'capital'
p70
I54
sS'net'
p71
I232
sS'staff'
p72
I340
sS'pirate'
p73
I263
sS'pants'
p74
I249
sS'europe'
p75
I120
sS'dwarf'
p76
I114
sS'degree'
p77
I101
sS'screen'
p78
I308
sS'undertaker'
p79
I379
sS'vet'
p80
I383
sS'water'
p81
I390
sS'china'
p82
I70
sS'sink'
p83
I319
sS'key'
p84
I183
sS'trunk'
p85
I376
sS'teacher'
p86
I359
sS'change'
p87
I65
sS'thumb'
p88
I364
sS'box'
p89
I43
sS'buck'
p90
I46
sS'himalayas'
p91
I161
sS'antactica'
p92
I9
sS'contract'
p93
I83
sS'bow'
p94
I42
sS'soldier'
p95
I327
sS'berry'
p96
I32
sS'witch'
p97
I397
sS'casino'
p98
I58
sS'head'
p99
I158
sS'apple'
p100
I10
sS'stream'
p101
I346
sS'point'
p102
I273
sS'egypt'
p103
I116
sS'africa'
p104
I0
sS'pole'
p105
I275
sS'pound'
p106
I280
sS'smuggler'
p107
I323
sS'duck'
p108
I113
sS'table'
p109
I354
sS'belt'
p110
I29
sS'turkey'
p111
I378
sS'plot'
p112
I272
sS'eye'
p113
I121
sS'angel'
p114
I8
sS'hospital'
p115
I170
sS'tail'
p116
I357
sS'france'
p117
I140
sS'suit'
p118
I350
sS'stadium'
p119
I339
sS'spike'
p120
I333
sS'strike'
p121
I347
sS'helicopter'
p122
I160
sS'bill'
p123
I33
sS'limousine'
p124
I198
sS'calf'
p125
I51
sS'engine'
p126
I118
sS'life'
p127
I196
sS'diamond'
p128
I102
sS'conductor'
p129
I82
sS'fire'
p130
I132
sS'gas'
p131
I142
sS'scuba_diver'
p132
I309
sS'missile'
p133
I221
sS'glass'
p134
I147
sS'berlin'
p135
I30
sS'train'
p136
I373
sS'wake'
p137
I384
sS'stick'
p138
I343
sS'rabbit'
p139
I287
sS'olive'
p140
I242
sS'hole'
p141
I162
sS'piano'
p142
I258
sS'pilot'
p143
I260
sS'sound'
p144
I329
sS'honey'
p145
I164
sS'novel'
p146
I237
sS'laser'
p147
I191
sS'tokyo'
p148
I368
sS'car'
p149
I55
sS'mount'
p150
I226
sS'cap'
p151
I53
sS'soul'
p152
I328
sS'air'
p153
I2
sS'cast'
p154
I59
sS'tag'
p155
I356
sS'drill'
p156
I111
sS'root'
p157
I296
sS'robin'
p158
I292
sS'thief'
p159
I363
sS'heart'
p160
I159
sS'shark'
p161
I314
sS'pyramid'
p162
I285
sS'tap'
p163
I358
sS'figure'
p164
I129
sS'mexico'
p165
I216
sS'pie'
p166
I259
sS'lock'
p167
I204
sS'india'
p168
I174
sS'agent'
p169
I1
sS'parachute'
p170
I251
sS'carrot'
p171
I57
sS'slip'
p172
I321
sS'march'
p173
I212
sS'mouse'
p174
I227
sS'court'
p175
I87
sS'doctor'
p176
I106
sS'dress'
p177
I110
sS'cross'
p178
I92
sS'mole'
p179
I223
sS'horseshoe'
p180
I169
sS'forest'
p181
I138
sS'wall'
p182
I385
sS'ray'
p183
I289
sS'beach'
p184
I23
sS'pan'
p185
I248
sS'stock'
p186
I344
sS'satellite'
p187
I302
sS'oil'
p188
I241
sS'spot'
p189
I335
sS'lab'
p190
I189
sS'hand'
p191
I156
sS'scientist'
p192
I306
sS'plane'
p193
I267
sS'olympus'
p194
I243
sS'unicorn'
p195
I380
sS'date'
p196
I97
sS'whale'
p197
I394
sS'ice_cream'
p198
I173
sS'lap'
p199
I190
sS'pheonix'
p200
I257
sS'kid'
p201
I184
sS'alps'
p202
I4
sS'slug'
p203
I322
sS'theater'
p204
I362
sS'center'
p205
I63
sS'light'
p206
I197
sS'platypus'
p207
I270
sS'robot'
p208
I293
sS'dragon'
p209
I109
sS'switch'
p210
I353
sS'rome'
p211
I295
sS'green'
p212
I153
sS'bottle'
p213
I41
sS'ambulance'
p214
I6
sS'model'
p215
I222
sS'straw'
p216
I345
sS'snowman'
p217
I325
sS'deck'
p218
I100
sS'vacuum'
p219
I381
sS'press'
p220
I281
sS'embassy'
p221
I117
sS'london'
p222
I206
sS'pitch'
p223
I266
sS'cold'
p224
I78
sS'web'
p225
I392
sS'death'
p226
I99
sS'police'
p227
I276
sS'ham'
p228
I155
sS'tablet'
p229
I355
sS'rose'
p230
I297
sS'bell'
p231
I28
sS'ketchup'
p232
I182
sS'battery'
p233
I22
sS'bermuda'
p234
I31
sS'board'
p235
I35
sS'orange'
p236
I245
sS'mail'
p237
I208
sS'pass'
p238
I254
sS'match'
p239
I214
sS'australia'
p240
I13
sS'crash'
p241
I90
sS'marble'
p242
I211
sS'ruler'
p243
I301
sS'spell'
p244
I331
sS'bat'
p245
I21
sS'band'
p246
I17
sS'game'
p247
I141
sS'compound'
p248
I80
sS'foot'
p249
I136
sS'ninja'
p250
I235
sS'shadow'
p251
I312
sS'tick'
p252
I365
sS'day'
p253
I98
sS'bank'
p254
I18
sS'opera'
p255
I244
sS'mint'
p256
I220
sS'drop'
p257
I112
sS'glove'
p258
I148
sS'server'
p259
I311
sS'spy'
p260
I337
sS'spine'
p261
I334
sS'night'
p262
I234
sS'chick'
p263
I69
sS'tower'
p264
I371
sS'bond'
p265
I38
sS'square'
p266
I338
sS'england'
p267
I119
sS'telescope'
p268
I360
sS'czech'
p269
I95
sS'loch_ness'
p270
I203
sS'fish'
p271
I133
sS'church'
p272
I72
sS'crown'
p273
I93
sS'back'
p274
I15
sS'kiwi'
p275
I186
sS'chocolate'
p276
I71
sS'ball'
p277
I16
sS'jupiter'
p278
I180
sS'ring'
p279
I291
sS'whip'
p280
I395
sS'canada'
p281
I52
sS'scale'
p282
I304
sS'lead'
p283
I193
sS'space'
p284
I330
sS'tube'
p285
I377
sS'ice'
p286
I172
sS'moon'
p287
I224
sS'shakespeare'
p288
I313
sS'washer'
p289
I387
sS'temple'
p290
I361
sS'knife'
p291
I187
sS'eagle'
p292
I115
sS'state'
p293
I342
sS'rock'
p294
I294
sS'centaur'
p295
I62
sS'bolt'
p296
I36
sS'post'
p297
I279
sS'paste'
p298
I255
sS'princess'
p299
I282
sS'card'
p300
I56
sS'new_york'
p301
I233
sS'yard'
p302
I399
sS'row'
p303
I300
sS'beijing'
p304
I27
sS'tie'
p305
I366
sS'swing'
p306
I352
sS'leprechaun'
p307
I195
sS'luck'
p308
I207
sS'octopus'
p309
I240
sS'block'
p310
I34
sS'copper'
p311
I85
sS'bugle'
p312
I49
sS'washington'
p313
I388
sS'hook'
p314
I166
sS'brush'
p315
I45
sS'comic'
p316
I79
sS'maple'
p317
I210
sS'mercury'
p318
I215
sS'horse'
p319
I168
sS'hawk'
p320
I157
sS'van'
p321
I382
sS'log'
p322
I205
sS'jet'
p323
I179
sS'sock'
p324
I326
sS'plastic'
p325
I268
sS'draft'
p326
I108
sS'spring'
p327
I336
sS'hollywood'
p328
I163
sS'cycle'
p329
I94
sS'war'
p330
I386
sS'fork'
p331
I139
sS'ivory'
p332
I176
sS'torch'
p333
I370
sS'atlantis'
p334
I12
sS'moscow'
p335
I225
sS'hotel'
p336
I171
sS'park'
p337
I252
sS'spider'
p338
I332
sS'part'
p339
I253
sS'link'
p340
I200
sS'crane'
p341
I89
sS'grace'
p342
I150
sS'penguin'
p343
I256
sS'king'
p344
I185
sS'roulette'
p345
I298
sS'litter'
p346
I202
sS'bed'
p347
I26
sS'iron'
p348
I175
sS'kangaroo'
p349
I181
sS'palm'
p350
I247
sS'grass'
p351
I151
sS'bridge'
p352
I44
sS'pin'
p353
I261
sS'well'
p354
I393
sS'greece'
p355
I152
sS'mine'
p356
I219
sS'dog'
p357
I107
sS'fly'
p358
I135
sS'file'
p359
I130
sS'ship'
p360
I315
sS'tooth'
p361
I369
sS'pit'
p362
I265
sS'check'
p363
I67
sS'film'
p364
I131
sS'cotton'
p365
I86
sS'hood'
p366
I165
sS'lemon'
p367
I194
sS'trip'
p368
I375
sS'boot'
p369
I40
sS'snow'
p370
I324
sS'arm'
p371
I11
sS'note'
p372
I236
sS'field'
p373
I127
sS'chest'
p374
I68
sS'boom'
p375
I39
sS'mammoth'
p376
I209
sS'cricket'
p377
I91
sS'club'
p378
I76
sS'play'
p379
I271
sS'needle'
p380
I231
sS'star'
p381
I341
sS'track'
p382
I372
sS'flute'
p383
I134
sS'mouth'
p384
I228
sS'worm'
p385
I398
sS'wind'
p386
I396
sS'america'
p387
I7
sS'pool'
p388
I277
sS'cliff'
p389
I74
sS'ghost'
p390
I145
sS'fighter'
p391
I128
sS'buffalo'
p392
I47
sS'cover'
p393
I88
sS'disease'
p394
I105
sS'face'
p395
I122
sS'pipe'
p396
I262
sS'mass'
p397
I213
sS'pupil'
p398
I284
sS'time'
p399
I367
sS'fair'
p400
I123
sS'germany'
p401
I144
s.