(dp1
S'shop'
p2
(lp3
Vboycott
p4
asS'code'
p5
(lp6
sS'bomb'
p7
(lp8
Vpass
p9
asS'gold'
p10
(lp11
sS'dance'
p12
(lp13
sS'queen'
p14
(lp15
Vking
p16
asS'alien'
p17
(lp18
Vacquaintance
p19
aVcitizen
p20
asS'shoe'
p21
(lp22
sS'shot'
p23
(lp24
sS'chair'
p25
(lp26
sS'line'
p27
(lp28
sS'ground'
p29
(lp30
Vfigure
p31
asS'giant'
p32
(lp33
sS'dice'
p34
(lp35
sS'scorpion'
p36
(lp37
sS'cloak'
p38
(lp39
sS'bug'
p40
(lp41
sS'charge'
p42
(lp43
Vdischarge
p44
aVcalm
p45
asS'jam'
p46
(lp47
Vfree
p48
asS'millionarie'
p49
(lp50
sS'circle'
p51
(lp52
sS'pumpkin'
p53
(lp54
sS'plate'
p55
(lp56
sS'triangle'
p57
(lp58
sS'string'
p59
(lp60
Vunstring
p61
asS'beat'
p62
(lp63
sS'watch'
p64
(lp65
sS'bear'
p66
(lp67
Vbull
p68
asS'wave'
p69
(lp70
sS'amazon'
p71
(lp72
sS'fan'
p73
(lp74
sS'jack'
p75
(lp76
sS'fall'
p77
(lp78
Vincrease
p79
aVascend
p80
aVrise
p81
aVascent
p82
asS'cook'
p83
(lp84
sS'saturn'
p85
(lp86
sS'nurse'
p87
(lp88
Vbottlefeed
p89
asS'school'
p90
(lp91
sS'pistol'
p92
(lp93
sS'bar'
p94
(lp95
Vunbar
p96
asS'organ'
p97
(lp98
sS'knight'
p99
(lp100
sS'button'
p101
(lp102
Vunbutton
p103
asS'dinosaur'
p104
(lp105
sS'microscope'
p106
(lp107
sS'paper'
p108
(lp109
sS'round'
p110
(lp111
Vsquare
p112
asS'revolution'
p113
(lp114
sS'force'
p115
(lp116
Vpush
p117
aVpull
p118
asS'concert'
p119
(lp120
sS'fence'
p121
(lp122
sS'nut'
p123
(lp124
sS'horn'
p125
(lp126
sS'nail'
p127
(lp128
sS'lion'
p129
(lp130
sS'aztec'
p131
(lp132
sS'lawyer'
p133
(lp134
sS'seal'
p135
(lp136
Vunseal
p137
asS'racket'
p138
(lp139
sS'bark'
p140
(lp141
sS'cat'
p142
(lp143
sS'port'
p144
(lp145
Vstarboard
p146
asS'superhero'
p147
(lp148
sS'sub'
p149
(lp150
sS'genious'
p151
(lp152
sS'poison'
p153
(lp154
sS'cell'
p155
(lp156
sS'mug'
p157
(lp158
sS'skyscraper'
p159
(lp160
sS'capital'
p161
(lp162
Vlowercase
p163
asS'net'
p164
(lp165
Vgross
p166
asS'staff'
p167
(lp168
sS'pirate'
p169
(lp170
sS'pants'
p171
(lp172
sS'europe'
p173
(lp174
sS'dwarf'
p175
(lp176
sS'degree'
p177
(lp178
sS'screen'
p179
(lp180
sS'undertaker'
p181
(lp182
sS'vet'
p183
(lp184
sS'water'
p185
(lp186
sS'china'
p187
(lp188
sS'sink'
p189
(lp190
Vsource
p191
aVfloat
p192
asS'key'
p193
(lp194
Vatonality
p195
asS'trunk'
p196
(lp197
sS'teacher'
p198
(lp199
sS'change'
p200
(lp201
Vstay
p202
asS'thumb'
p203
(lp204
sS'box'
p205
(lp206
Vunbox
p207
asS'buck'
p208
(lp209
sS'himalayas'
p210
(lp211
sS'antactica'
p212
(lp213
sS'contract'
p214
(lp215
Vstretch
p216
aVwiden
p217
aVexpand
p218
asS'bow'
p219
(lp220
sS'soldier'
p221
(lp222
sS'berry'
p223
(lp224
sS'witch'
p225
(lp226
sS'casino'
p227
(lp228
sS'head'
p229
(lp230
Vfoot
p231
aVtail
p232
aVrear
p233
asS'apple'
p234
(lp235
sS'stream'
p236
(lp237
sS'point'
p238
(lp239
Vunpointedness
p240
asS'egypt'
p241
(lp242
sS'africa'
p243
(lp244
sS'pole'
p245
(lp246
sS'pound'
p247
(lp248
sS'smuggler'
p249
(lp250
sS'duck'
p251
(lp252
sS'table'
p253
(lp254
sS'belt'
p255
(lp256
Vunbelt
p257
asS'turkey'
p258
(lp259
sS'plot'
p260
(lp261
sS'eye'
p262
(lp263
sS'angel'
p264
(lp265
sS'hospital'
p266
(lp267
sS'tail'
p268
(lp269
Vhead
p270
asS'france'
p271
(lp272
sS'suit'
p273
(lp274
sS'stadium'
p275
(lp276
sS'spike'
p277
(lp278
sS'strike'
p279
(lp280
Vmiss
p281
asS'helicopter'
p282
(lp283
sS'bill'
p284
(lp285
sS'limousine'
p286
(lp287
sS'calf'
p288
(lp289
sS'engine'
p290
(lp291
sS'life'
p292
(lp293
sS'diamond'
p294
(lp295
Voutfield
p296
asS'conductor'
p297
(lp298
Vinsulator
p299
asS'fire'
p300
(lp301
Vhire
p302
asS'gas'
p303
(lp304
sS'scuba_diver'
p305
(lp306
sS'missile'
p307
(lp308
sS'glass'
p309
(lp310
sS'berlin'
p311
(lp312
sS'train'
p313
(lp314
sS'wake'
p315
(lp316
Vsleep
p317
asS'stick'
p318
(lp319
Vdislodge
p320
aVmove
p321
asS'rabbit'
p322
(lp323
sS'olive'
p324
(lp325
sS'hole'
p326
(lp327
sS'piano'
p328
(lp329
Vforte
p330
asS'pilot'
p331
(lp332
sS'sound'
p333
(lp334
Vunsound
p335
aVdevoice
p336
aVsilence
p337
asS'honey'
p338
(lp339
sS'novel'
p340
(lp341
sS'laser'
p342
(lp343
sS'tokyo'
p344
(lp345
sS'car'
p346
(lp347
sS'mount'
p348
(lp349
Vwane
p350
asS'cap'
p351
(lp352
sS'soul'
p353
(lp354
sS'air'
p355
(lp356
sS'cast'
p357
(lp358
sS'tag'
p359
(lp360
sS'drill'
p361
(lp362
sS'root'
p363
(lp364
Vdescendant
p365
asS'robin'
p366
(lp367
sS'thief'
p368
(lp369
sS'heart'
p370
(lp371
sS'shark'
p372
(lp373
sS'pyramid'
p374
(lp375
sS'tap'
p376
(lp377
sS'figure'
p378
(lp379
Vground
p380
asS'mexico'
p381
(lp382
sS'pie'
p383
(lp384
sS'lock'
p385
(lp386
Vdisengage
p387
aVunlock
p388
asS'india'
p389
(lp390
sS'agent'
p391
(lp392
sS'parachute'
p393
(lp394
sS'carrot'
p395
(lp396
sS'slip'
p397
(lp398
sS'march'
p399
(lp400
sS'mouse'
p401
(lp402
sS'court'
p403
(lp404
sS'doctor'
p405
(lp406
Vbreak
p407
asS'dress'
p408
(lp409
Vundress
p410
asS'cross'
p411
(lp412
Vuncross
p413
asS'mole'
p414
(lp415
sS'horseshoe'
p416
(lp417
sS'forest'
p418
(lp419
sS'wall'
p420
(lp421
sS'ray'
p422
(lp423
sS'beach'
p424
(lp425
sS'pan'
p426
(lp427
sS'stock'
p428
(lp429
sS'satellite'
p430
(lp431
sS'oil'
p432
(lp433
sS'spot'
p434
(lp435
sS'lab'
p436
(lp437
sS'hand'
p438
(lp439
sS'scientist'
p440
(lp441
sS'plane'
p442
(lp443
sS'olympus'
p444
(lp445
sS'unicorn'
p446
(lp447
sS'date'
p448
(lp449
sS'whale'
p450
(lp451
sS'ice_cream'
p452
(lp453
sS'lap'
p454
(lp455
sS'pheonix'
p456
(lp457
sS'kid'
p458
(lp459
Vparent
p460
asS'alps'
p461
(lp462
sS'slug'
p463
(lp464
Vwork
p465
asS'theater'
p466
(lp467
sS'center'
p468
(lp469
Vright
p470
aVleft
p471
asS'light'
p472
(lp473
Vdark
p474
aVheavy
p475
aVextinguish
p476
asS'platypus'
p477
(lp478
sS'robot'
p479
(lp480
sS'dragon'
p481
(lp482
sS'switch'
p483
(lp484
sS'rome'
p485
(lp486
sS'green'
p487
(lp488
Vripe
p489
asS'bottle'
p490
(lp491
sS'ambulance'
p492
(lp493
sS'model'
p494
(lp495
sS'straw'
p496
(lp497
sS'snowman'
p498
(lp499
sS'deck'
p500
(lp501
sS'vacuum'
p502
(lp503
sS'press'
p504
(lp505
sS'embassy'
p506
(lp507
sS'london'
p508
(lp509
sS'pitch'
p510
(lp511
sS'cold'
p512
(lp513
Vhot
p514
aVhotness
p515
asS'web'
p516
(lp517
sS'death'
p518
(lp519
Vbirth
p520
asS'police'
p521
(lp522
sS'ham'
p523
(lp524
Vunderact
p525
asS'tablet'
p526
(lp527
sS'rose'
p528
(lp529
g350
aVset
p530
aVfall
p531
asS'bell'
p532
(lp533
sS'ketchup'
p534
(lp535
sS'battery'
p536
(lp537
sS'bermuda'
p538
(lp539
sS'board'
p540
(lp541
sS'orange'
p542
(lp543
sS'mail'
p544
(lp545
sS'pass'
p546
(lp547
Vfail
p548
aVrunning
p549
aVfailing
p550
asS'match'
p551
(lp552
Vdisagree
p553
asS'australia'
p554
(lp555
sS'crash'
p556
(lp557
sS'marble'
p558
(lp559
sS'ruler'
p560
(lp561
sS'spell'
p562
(lp563
Vunspell
p564
asS'bat'
p565
(lp566
sS'band'
p567
(lp568
sS'game'
p569
(lp570
sS'compound'
p571
(lp572
Vsimple
p573
asS'foot'
p574
(lp575
Vhead
p576
asS'ninja'
p577
(lp578
sS'shadow'
p579
(lp580
sS'tick'
p581
(lp582
sS'day'
p583
(lp584
Vnight
p585
asS'bank'
p586
(lp587
Vdistrust
p588
aVmistrust
p589
aVwithdraw
p590
asS'opera'
p591
(lp592
sS'mint'
p593
(lp594
sS'drop'
p595
(lp596
Vsharpen
p597
aVrecuperate
p598
asS'glove'
p599
(lp600
sS'server'
p601
(lp602
sS'spy'
p603
(lp604
sS'spine'
p605
(lp606
sS'night'
p607
(lp608
Vday
p609
asS'chick'
p610
(lp611
sS'tower'
p612
(lp613
sS'bond'
p614
(lp615
sS'square'
p616
(lp617
Vcrooked
p618
aVround
p619
asS'england'
p620
(lp621
sS'telescope'
p622
(lp623
sS'czech'
p624
(lp625
sS'loch_ness'
p626
(lp627
sS'fish'
p628
(lp629
sS'church'
p630
(lp631
sS'crown'
p632
(lp633
sS'back'
p634
(lp635
Vfront
p636
aVadvance
p637
aVahead
p638
aVveer
p639
aVforward
p640
asS'kiwi'
p641
(lp642
sS'chocolate'
p643
(lp644
sS'ball'
p645
(lp646
sS'jupiter'
p647
(lp648
sS'ring'
p649
(lp650
sS'whip'
p651
(lp652
sS'canada'
p653
(lp654
sS'scale'
p655
(lp656
sS'lead'
p657
(lp658
Vfollow
p659
aVdeficit
p660
asS'space'
p661
(lp662
sS'tube'
p663
(lp664
sS'ice'
p665
(lp666
sS'moon'
p667
(lp668
sS'shakespeare'
p669
(lp670
sS'washer'
p671
(lp672
sS'temple'
p673
(lp674
sS'knife'
p675
(lp676
sS'eagle'
p677
(lp678
sS'state'
p679
(lp680
sS'rock'
p681
(lp682
sS'centaur'
p683
(lp684
sS'bolt'
p685
(lp686
Vunbolt
p687
asS'post'
p688
(lp689
sS'paste'
p690
(lp691
sS'princess'
p692
(lp693
sS'card'
p694
(lp695
sS'new_york'
p696
(lp697
sS'yard'
p698
(lp699
sS'row'
p700
(lp701
sS'beijing'
p702
(lp703
sS'tie'
p704
(lp705
Vdisconnect
p706
aVuntie
p707
asS'swing'
p708
(lp709
sS'leprechaun'
p710
(lp711
sS'luck'
p712
(lp713
sS'octopus'
p714
(lp715
sS'block'
p716
(lp717
Vunblock
p718
aVunfreeze
p719
ag48
aVunstuff
p720
aVremember
p721
asS'copper'
p722
(lp723
sS'bugle'
p724
(lp725
sS'washington'
p726
(lp727
sS'hook'
p728
(lp729
Vundercharge
p730
aVunhook
p731
asS'brush'
p732
(lp733
sS'comic'
p734
(lp735
sS'maple'
p736
(lp737
sS'mercury'
p738
(lp739
sS'horse'
p740
(lp741
sS'hawk'
p742
(lp743
Vdove
p744
asS'van'
p745
(lp746
sS'log'
p747
(lp748
sS'jet'
p749
(lp750
sS'sock'
p751
(lp752
sS'plastic'
p753
(lp754
sS'draft'
p755
(lp756
Vdischarge
p757
asS'spring'
p758
(lp759
sS'hollywood'
p760
(lp761
sS'cycle'
p762
(lp763
sS'war'
p764
(lp765
Vpeace
p766
asS'fork'
p767
(lp768
sS'ivory'
p769
(lp770
sS'torch'
p771
(lp772
sS'atlantis'
p773
(lp774
sS'moscow'
p775
(lp776
sS'hotel'
p777
(lp778
sS'park'
p779
(lp780
sS'spider'
p781
(lp782
sS'part'
p783
(lp784
Vwholly
p785
asS'link'
p786
(lp787
Vdissociate
p788
ag706
aVdisconnectedness
p789
asS'crane'
p790
(lp791
sS'grace'
p792
(lp793
Vunseemliness
p794
asS'penguin'
p795
(lp796
sS'king'
p797
(lp798
Vqueen
p799
asS'roulette'
p800
(lp801
sS'litter'
p802
(lp803
sS'bed'
p804
(lp805
sS'iron'
p806
(lp807
sS'kangaroo'
p808
(lp809
sS'palm'
p810
(lp811
sS'grass'
p812
(lp813
sS'bridge'
p814
(lp815
sS'pin'
p816
(lp817
Vunpin
p818
asS'well'
p819
(lp820
Vbadly
p821
aVill
p822
aVdisadvantageously
p823
asS'greece'
p824
(lp825
sS'mine'
p826
(lp827
sS'dog'
p828
(lp829
sS'fly'
p830
(lp831
sS'file'
p832
(lp833
sS'ship'
p834
(lp835
Vdisembark
p836
asS'tooth'
p837
(lp838
sS'pit'
p839
(lp840
VHeaven
p841
asS'check'
p842
(lp843
g553
asS'film'
p844
(lp845
sS'cotton'
p846
(lp847
sS'hood'
p848
(lp849
sS'lemon'
p850
(lp851
sS'trip'
p852
(lp853
sS'boot'
p854
(lp855
sS'snow'
p856
(lp857
sS'arm'
p858
(lp859
Vdisarm
p860
asS'note'
p861
(lp862
Vignore
p863
asS'field'
p864
(lp865
sS'chest'
p866
(lp867
sS'boom'
p868
(lp869
sS'mammoth'
p870
(lp871
sS'cricket'
p872
(lp873
sS'club'
p874
(lp875
sS'play'
p876
(lp877
Vtightness
p878
asS'needle'
p879
(lp880
sS'star'
p881
(lp882
sS'track'
p883
(lp884
sS'flute'
p885
(lp886
sS'mouth'
p887
(lp888
sS'worm'
p889
(lp890
sS'wind'
p891
(lp892
Vunwind
p893
asS'america'
p894
(lp895
sS'pool'
p896
(lp897
sS'cliff'
p898
(lp899
sS'ghost'
p900
(lp901
sS'fighter'
p902
(lp903
sS'buffalo'
p904
(lp905
sS'cover'
p906
(lp907
Vuncover
p908
asS'disease'
p909
(lp910
sS'face'
p911
(lp912
Vavoid
p913
aVback
p914
asS'pipe'
p915
(lp916
sS'mass'
p917
(lp918
sS'pupil'
p919
(lp920
sS'time'
p921
(lp922
sS'fair'
p923
(lp924
Vunfairly
p925
aVunfair
p926
aVfoul
p927
asS'germany'
p928
(lp929
s.