(dp1
S'shop'
p2
(lp3
Vstore
p4
aVshit
p5
aVbrowse
p6
aVdenounce
p7
aVpatronize
p8
aVstag
p9
aVrat
p10
aVworkshop
p11
aVpatronise
p12
aVsponsor
p13
aVsnitch
p14
aVgrass
p15
aVfrequent
p16
aVbetray
p17
asS'code'
p18
(lp19
Vencipher
p20
aVcypher
p21
aVencrypt
p22
aVcodification
p23
aVinscribe
p24
aVcipher
p25
asS'bomb'
p26
(lp27
Vturkey
p28
aVbombard
p29
aVfail
p30
aVdud
p31
aVflunk
p32
asS'gold'
p33
(lp34
Vamber
p35
aVgolden
p36
aVgilded
p37
aVaureate
p38
aVAu
p39
aVgilt
p40
asS'dance'
p41
(lp42
Vterpsichore
p43
aVsaltation
p44
aVdancing
p45
asS'queen'
p46
(lp47
Vworld-beater
p48
aVking
p49
aVfairy
p50
aVnance
p51
aVtabby
p52
aVfagot
p53
aVpansy
p54
aVpoof
p55
aVqueer
p56
aVpouf
p57
aVfaggot
p58
aVfag
p59
aVpoove
p60
asS'alien'
p61
(lp62
Vexotic
p63
aVstranger
p64
aVnoncitizen
p65
aVunknown
p66
aVoutlander
p67
aVforeigner
p68
aVforeign
p69
aVextraterrestrial
p70
aVdisaffect
p71
aValienate
p72
aVestrange
p73
asS'shoe'
p74
(lp75
Vskid
p76
aVhorseshoe
p77
asS'shot'
p78
(lp79
Vguessing
p80
aVshooter
p81
aVsprout
p82
aVscene
p83
aVdash
p84
aVstroke
p85
aVbarb
p86
aVdissipate
p87
aVpip
p88
aVchangeable
p89
aVshooting
p90
aVnip
p91
aVfilm
p92
aVguess
p93
aVchatoyant
p94
aVflash
p95
aVcharge
p96
aVtake
p97
aVcrack
p98
aVsnap
p99
aVgerminate
p100
aVinject
p101
aVfool
p102
aVgibe
p103
aVhit
p104
aVblastoff
p105
aVbuck
p106
aVspud
p107
aVdart
p108
aVstab
p109
aViridescent
p110
aVguesswork
p111
aVinjection
p112
aVblast
p113
aVpellet
p114
aVshoot
p115
aVshaft
p116
aVphotograph
p117
aVtear
p118
aVdig
p119
aVscud
p120
aVslam
p121
aVsnapshot
p122
aVscoot
p123
aVjibe
p124
aVpullulate
p125
aVbourgeon
p126
aVfritter
p127
asS'chair'
p128
(lp129
Vchairperson
p130
aVlead
p131
aVprofessorship
p132
aVchairman
p133
aVpresident
p134
aVmoderate
p135
aVchairwoman
p136
asS'line'
p137
(lp138
Vorigin
p139
aVstemma
p140
aVdescribe
p141
aVargument
p142
aVcourse
p143
aVseam
p144
aVtrace
p145
aVmelody
p146
aVair
p147
aVoccupation
p148
aVparentage
p149
aVargumentation
p150
aVdescent
p151
aVnote
p152
aVfurrow
p153
aVchannel
p154
aVstock
p155
aVdelineate
p156
aVdraw
p157
aVbusiness
p158
aVbillet
p159
aVjob
p160
aVancestry
p161
aVblood
p162
aVwrinkle
p163
aVtune
p164
aVpedigree
p165
aVlineage
p166
aVpipeline
p167
aVdemarcation
p168
aVcable
p169
aVbloodline
p170
aVcrease
p171
aVstrain
p172
aVcontrast
p173
aVcrinkle
p174
asS'ground'
p175
(lp176
Vmash
p177
aVsoil
p178
aVearth
p179
aVprimer
p180
aVestablish
p181
aVpriming
p182
aVcranch
p183
aVbasis
p184
aVfooting
p185
aVundercoat
p186
aVlabor
p187
aVlabour
p188
aVdrudge
p189
aVcrunch
p190
aVcomminute
p191
aVtravail
p192
aVcraunch
p193
aVreason
p194
aVbase
p195
aVbackground
p196
aVgrate
p197
aVmoil
p198
aVfag
p199
aVstrand
p200
aVprime
p201
aVland
p202
aVbray
p203
aVdig
p204
aVgrind
p205
aVtoil
p206
aVfound
p207
aVanchor
p208
asS'giant'
p209
(lp210
Vtitan
p211
aVmonster
p212
aVbehemoth
p213
aVcolossus
p214
aVhulk
p215
aVjumbo
p216
aVheavyweight
p217
aVelephantine
p218
aVwhale
p219
aVgargantuan
p220
aVgoliath
p221
asS'dice'
p222
(lp223
Vdie
p224
aVcube
p225
asS'scorpion'
p226
(lp227
VScorpio
p228
aVScorpion
p229
asS'cloak'
p230
(lp231
Vrobe
p232
aVdrape
p233
aVmask
p234
aVdissemble
p235
aVclothe
p236
asS'bug'
p237
(lp238
Vpester
p239
aVbeleaguer
p240
aVhemipteran
p241
aVwiretap
p242
aVtease
p243
aVhemipteron
p244
aVgerm
p245
aVglitch
p246
aVintercept
p247
aVmicrobe
p248
aVtap
p249
aVbadger
p250
asS'charge'
p251
(lp252
Vload
p253
aVbearing
p254
aVburden
p255
aVpoint
p256
aVmission
p257
aVagitate
p258
aVsaddle
p259
aVaccusation
p260
aVcathexis
p261
aVfile
p262
aVflush
p263
aVburster
p264
aVtutelage
p265
aVbilling
p266
aVboot
p267
aVsend
p268
aVcommission
p269
aVinstitutionalise
p270
aVlodge
p271
aVkick
p272
aVappoint
p273
aVcomplaint
p274
aVblame
p275
aVexcite
p276
aVconsign
p277
aVbang
p278
aVaccuse
p279
aVrouse
p280
aVcare
p281
aVshoot
p282
ag106
aVrush
p283
aVcommove
p284
aVthrill
p285
aVlevel
p286
ag118
aVbill
p287
aVinstitutionalize
p288
aVdirection
p289
aVcommit
p290
aVguardianship
p291
asS'jam'
p292
(lp293
Vobstruct
p294
aVobturate
p295
aVthrong
p296
aVwad
p297
aVmess
p298
aVjamming
p299
aVfix
p300
aVram
p301
aVjampack
p302
aVmuddle
p303
aVcrush
p304
aVimpede
p305
aVpile
p306
aVocclude
p307
aVcram
p308
aVpress
p309
aVmob
p310
aVhole
p311
aVpickle
p312
aVblock
p313
aVpack
p314
asS'millionarie'
p315
(lp316
sS'circle'
p317
(lp318
VR-2
p319
aVencircle
p320
aVroofy
p321
aVset
p322
aVlot
p323
aVrotary
p324
aVrope
p325
aVband
p326
aVroundabout
p327
aVcircuit
p328
aVrophy
p329
aVroach
p330
aVlap
p331
aVround
p332
aVcirculate
p333
asS'pumpkin'
p334
(lp335
sS'plate'
p336
(lp337
Vdenture
p338
aVhome
p339
aVshell
p340
aVscale
p341
aVplateful
p342
asS'triangle'
p343
(lp344
Vtrilateral
p345
aVTriangle
p346
aVTriangulum
p347
aVtrigon
p348
asS'string'
p349
(lp350
Vdraw
p351
aVtwine
p352
aVchain
p353
aVthread
p354
aVdrawstring
p355
aVtrain
p356
aVstrand
p357
asS'beat'
p358
(lp359
Vpound
p360
aVquiver
p361
aVstick
p362
aVoutfox
p363
aVpuzzle
p364
aVstupefy
p365
aVpulse
p366
aVthrum
p367
aVmeasure
p368
aVcircumvent
p369
aVperplex
p370
aVbewilder
p371
aVoutsmart
p372
aVbunk
p373
aVtrounce
p374
aVvex
p375
aVcrush
p376
aVamaze
p377
aVoutwit
p378
aVrhythm
p379
aVthump
p380
aVgravel
p381
aVcadence
p382
aVexhaust
p383
aVshell
p384
aVflap
p385
aVget
p386
aVbeatnik
p387
aVnonplus
p388
aVpose
p389
aVbaffle
p390
aVoverreach
p391
aVmeter
p392
aVticktack
p393
aVtick
p394
aVdead
p395
aVmystify
p396
aVtucker
p397
aVdrum
p398
aVpulsate
p399
aVflummox
p400
aVmetre
p401
aVround
p402
aVdumbfound
p403
aVbushed
p404
aVheartbeat
p405
aVpulsation
p406
aVscramble
p407
aVticktock
p408
aVvanquish
p409
asS'watch'
p410
(lp411
Vlookout
p412
aVlearn
p413
aVdetermine
p414
aVpicket
p415
aVobserve
p416
aVsentry
p417
aVsentinel
p418
aVsee
p419
aVscout
p420
aVspotter
p421
aVascertain
p422
aVvigil
p423
aVfollow
p424
aVcatch
p425
aVticker
p426
aVcheck
p427
aVview
p428
asS'bear'
p429
(lp430
Vgestate
p431
aVcomport
p432
aVaccept
p433
aVexpect
p434
aVhave
p435
aVcarry
p436
aVsuffer
p437
aVdigest
p438
aVacquit
p439
aVpay
p440
aVsupport
p441
aVbrook
p442
aVabide
p443
aVbehave
p444
aVconduct
p445
aVstand
p446
aVstomach
p447
aVdeliver
p448
aVwear
p449
aVbirth
p450
aVdeport
p451
aVhold
p452
aVassume
p453
aVtolerate
p454
aVyield
p455
aVendure
p456
aVcontain
p457
asS'wave'
p458
(lp459
Vundulation
p460
aVflap
p461
aVroll
p462
aVundulate
p463
aVWave
p464
aVwaving
p465
aVbeckon
p466
aVcurl
p467
aVwafture
p468
aVflourish
p469
aVbrandish
p470
asS'amazon'
p471
(lp472
VAmazon
p473
aVvirago
p474
asS'fan'
p475
(lp476
Vdevotee
p477
aVrooter
p478
aVwinnow
p479
aVlover
p480
aVbuff
p481
asS'jack'
p482
(lp483
Vdiddlyshit
p484
aVtar
p485
aVshit
p486
aVsquat
p487
aVseaman
p488
aVgob
p489
aVjak
p490
aVdiddly
p491
aVjackstones
p492
aVjackass
p493
aVdiddlysquat
p494
aVJack
p495
aVjacklight
p496
aVdiddly-squat
p497
aVlabourer
p498
aVseafarer
p499
aVJack-tar
p500
aVdoodly-squat
p501
aVjackfruit
p502
aVlaborer
p503
aVdiddly-shit
p504
aVknave
p505
aVdiddley
p506
aVmariner
p507
asS'fall'
p508
(lp509
Vcrepuscle
p510
aVdeclivity
p511
aVdownfall
p512
aVflow
p513
aVevenfall
p514
aVgloaming
p515
aVautumn
p516
aVdecrease
p517
aVpass
p518
aVdecline
p519
aVdescent
p520
aVdevolve
p521
aVcrepuscule
p522
aVcome
p523
aVaccrue
p524
aVtumble
p525
aVsettle
p526
aVdescend
p527
aVpin
p528
aVFall
p529
aVstrike
p530
aVprecipitate
p531
aVdeclension
p532
aVreturn
p533
aVdusk
p534
aVhang
p535
aVgloam
p536
aVcapitulation
p537
aVnightfall
p538
aVdiminish
p539
aVsurrender
p540
aVtwilight
p541
aVshine
p542
aVspill
p543
aVlight
p544
aVdrop
p545
aVlessen
p546
aVdownslope
p547
aVdeclination
p548
aVdip
p549
asS'cook'
p550
(lp551
Vprepare
p552
aVfix
p553
aVwangle
p554
aVfalsify
p555
aVready
p556
aVfake
p557
aVCook
p558
aVmisrepresent
p559
aVfudge
p560
aVmake
p561
aVmanipulate
p562
asS'saturn'
p563
(lp564
VSaturn
p565
asS'nurse'
p566
(lp567
Vsuckle
p568
aVnursemaid
p569
aVwet-nurse
p570
aVharbor
p571
aVbreastfeed
p572
aVharbour
p573
aVentertain
p574
aVnanny
p575
aVlactate
p576
aVsuck
p577
aVhold
p578
asS'school'
p579
(lp580
Veducate
p581
aVschooltime
p582
aVcivilise
p583
aVschooling
p584
aVtrain
p585
aVshoal
p586
aVcultivate
p587
aVschoolhouse
p588
aVcivilize
p589
asS'pistol'
p590
(lp591
Vhandgun
p592
asS'bar'
p593
(lp594
Vstreak
p595
aVblock
p596
aVrelegate
p597
aVBAR
p598
aVtaproom
p599
aVmeasure
p600
aVstop
p601
aVexclude
p602
aVginmill
p603
aVblockade
p604
aVbarricade
p605
aVstripe
p606
aVbarroom
p607
aVcake
p608
aVdebar
p609
aVsaloon
p610
aVprevention
p611
aVbanish
p612
asS'organ'
p613
(lp614
Vharmonium
p615
asS'knight'
p616
(lp617
Vhorse
p618
aVdub
p619
asS'button'
p620
(lp621
Vpush
p622
aVclitoris
p623
aVclit
p624
aVrelease
p625
asS'dinosaur'
p626
(lp627
sS'microscope'
p628
(lp629
sS'paper'
p630
(lp631
Vreport
p632
aVnewspaper
p633
aVtheme
p634
aVwallpaper
p635
aVcomposition
p636
asS'round'
p637
(lp638
Vtroll
p639
aVrotund
p640
aVrung
p641
aVorotund
p642
aVlabialise
p643
aVbeat
p644
aVsnipe
p645
aVpear-shaped
p646
aVstave
p647
aVassault
p648
aVaround
p649
aVturn
p650
aVattack
p651
aVrhythm
p652
aVpolish
p653
aVassail
p654
aVbout
p655
aVcircular
p656
aVlabialize
p657
aVcircle
p658
aVcycle
p659
asS'revolution'
p660
(lp661
Vgyration
p662
aVrotation
p663
asS'force'
p664
(lp665
Vwedge
p666
aVdraw
p667
aVstrength
p668
aVpower
p669
aVpressure
p670
aVforce-out
p671
aVpersonnel
p672
aVviolence
p673
aVthrust
p674
aVeffect
p675
aVdrive
p676
aVimpel
p677
aVcoerce
p678
aVforcefulness
p679
aVhale
p680
aVram
p681
aVstorm
p682
aVpush
p683
aVsqueeze
p684
aVpull
p685
asS'concert'
p686
(lp687
sS'fence'
p688
(lp689
Vcontend
p690
aVwall
p691
aVfencing
p692
aVpalisade
p693
aVsurround
p694
aVargue
p695
aVdebate
p696
asS'nut'
p697
(lp698
Vscrewball
p699
aVen
p700
aVfreak
p701
aVorchis
p702
aVNut
p703
aVfruitcake
p704
aVtestis
p705
aVjunky
p706
aVbollock
p707
aVjunkie
p708
aVball
p709
aVcrank
p710
aVcrackpot
p711
aVballock
p712
aVegg
p713
aVtesticle
p714
aVaddict
p715
asS'horn'
p716
(lp717
Vhooter
p718
aVtusk
p719
aVtrumpet
p720
aVtrump
p721
aVcornet
p722
asS'nail'
p723
(lp724
Vnab
p725
aVsmash
p726
aVpeg
p727
aVpinpoint
p728
aVace
p729
aVcop
p730
aVapprehend
p731
aVarrest
p732
aVboom
p733
aVblast
p734
aVcollar
p735
aVcomplete
p736
asS'lion'
p737
(lp738
VLion
p739
aVLeo
p740
asS'aztec'
p741
(lp742
VAztec
p743
asS'lawyer'
p744
(lp745
Vattorney
p746
asS'seal'
p747
(lp748
Vstamp
p749
aVcachet
p750
aVvarnish
p751
aVsealskin
p752
aVSEAL
p753
asS'racket'
p754
(lp755
Vracquet
p756
aVdissonance
p757
aVjollify
p758
aVrevel
p759
aVnoise
p760
aVwassail
p761
asS'bark'
p762
(lp763
Vbarque
p764
aVskin
p765
asS'cat'
p766
(lp767
Vretch
p768
aVbozo
p769
aVkat
p770
aVCAT
p771
aVbarf
p772
aVqat
p773
aVregorge
p774
aVspew
p775
aVpuke
p776
aVhonk
p777
aVCaterpillar
p778
aVsick
p779
aVregurgitate
p780
aVkhat
p781
aVdisgorge
p782
aVquat
p783
aVspue
p784
aVupchuck
p785
aVvomit
p786
aVhombre
p787
aVcat-o'-nine-tails
p788
aVCT
p789
aVchuck
p790
aVpurge
p791
aVcast
p792
aVguy
p793
asS'port'
p794
(lp795
Vinterface
p796
aVlarboard
p797
aVembrasure
p798
aVporthole
p799
asS'superhero'
p800
(lp801
sS'sub'
p802
(lp803
Vwedge
p804
aVhoagie
p805
aVhero
p806
aVpigboat
p807
aVU-boat
p808
aVsubmarine
p809
aVzep
p810
aVgrinder
p811
aVtorpedo
p812
aVbomber
p813
aVhoagy
p814
aVsubstitute
p815
asS'genious'
p816
(lp817
sS'poison'
p818
(lp819
Vtoxicant
p820
aVenvenom
p821
asS'cell'
p822
(lp823
Vcellphone
p824
aVcadre
p825
aVcubicle
p826
asS'mug'
p827
(lp828
Vfool
p829
aVsmiler
p830
aVphysiognomy
p831
aVvisage
p832
aVsucker
p833
aVgull
p834
aVkisser
p835
aVpatsy
p836
aVmark
p837
aVcountenance
p838
aVmugful
p839
aVchump
p840
aVphiz
p841
asS'skyscraper'
p842
(lp843
sS'capital'
p844
(lp845
Vmajuscule
p846
aVgreat
p847
aVuppercase
p848
aVcap
p849
aVWashington
p850
aVchapiter
p851
aVCapital
p852
asS'net'
p853
(lp854
Vcyberspace
p855
aVmeshing
p856
aVnetwork
p857
aVlucre
p858
aVweb
p859
aVprofit
p860
aVclear
p861
aVsack
p862
aVmeshwork
p863
aVmesh
p864
aVearnings
p865
aVinternet
p866
aVlast
p867
aVnett
p868
aVfinal
p869
aVprofits
p870
asS'staff'
p871
(lp872
Vstave
p873
aVfaculty
p874
asS'pirate'
p875
(lp876
Vplagiariser
p877
aVplagiarizer
p878
aVcommandeer
p879
aVhighjack
p880
aVbuccaneer
p881
aVplagiarist
p882
aVhijack
p883
asS'pants'
p884
(lp885
Vtrouser
p886
aVpant
p887
aVdrawers
p888
aVbloomers
p889
aVpuff
p890
aVgasp
p891
aVheave
p892
aVknickers
p893
asS'europe'
p894
(lp895
VEurope
p896
aVEU
p897
aVEEC
p898
aVEC
p899
asS'dwarf'
p900
(lp901
Vovershadow
p902
aVshadow
p903
aVmidget
p904
aVgnome
p905
aVnanus
p906
asS'degree'
p907
(lp908
Vgrade
p909
aVarcdegree
p910
aVstage
p911
aVpoint
p912
aVlevel
p913
asS'screen'
p914
(lp915
Vblind
p916
aVscreenland
p917
aVshield
p918
aVcovert
p919
aVcover
p920
aVriddle
p921
aVsort
p922
aVtest
p923
aVfilmdom
p924
aVsieve
p925
aVconcealment
p926
asS'undertaker'
p927
(lp928
Vmortician
p929
asS'vet'
p930
(lp931
Vveteran
p932
aVveterinary
p933
aVveterinarian
p934
aVex-serviceman
p935
asS'water'
p936
(lp937
Vweewee
p938
aVpiddle
p939
aVirrigate
p940
aVurine
p941
aVH2O
p942
aVpee
p943
aVpiss
p944
asS'china'
p945
(lp946
VCathay
p947
aVTaiwan
p948
aVchinaware
p949
aVChina
p950
aVPRC
p951
asS'sink'
p952
(lp953
Vbury
p954
aVcesspool
p955
aVslump
p956
aVlapse
p957
aVdrop
p958
aVsubside
p959
aVcesspit
p960
aVsump
p961
aVsettle
p962
aVpass
p963
aVsinkhole
p964
aVdip
p965
asS'key'
p966
(lp967
Vfundamental
p968
aVcay
p969
aVcentral
p970
aVname
p971
aVheadstone
p972
aVdescribe
p973
aVdiscover
p974
aVsamara
p975
aVpaint
p976
aVcardinal
p977
aVkeystone
p978
aVwinder
p979
aVKey
p980
aVprimal
p981
aVdistinguish
p982
aVidentify
p983
aVtonality
p984
asS'trunk'
p985
(lp986
Vbody
p987
aVtorso
p988
aVproboscis
p989
aVbole
p990
asS'teacher'
p991
(lp992
Vinstructor
p993
asS'change'
p994
(lp995
Vinterchange
p996
aVconvert
p997
aVvariety
p998
aVmodify
p999
aVexchange
p1000
aVvary
p1001
aValteration
p1002
aVswitch
p1003
aVcommute
p1004
aVshift
p1005
aVmodification
p1006
aVdeepen
p1007
aVtransfer
p1008
aValter
p1009
asS'thumb'
p1010
(lp1011
Vflick
p1012
aVleaf
p1013
aVovolo
p1014
aVflip
p1015
aVhitch
p1016
aVhitchhike
p1017
aVriff
p1018
aVfinger
p1019
aVpollex
p1020
aVriffle
p1021
asS'box'
p1022
(lp1023
Vpackage
p1024
aVcorner
p1025
aVboxful
p1026
aVloge
p1027
aVboxwood
p1028
asS'buck'
p1029
(lp1030
g282
aVBuck
p1031
aVhorse
p1032
aVclam
p1033
aVjerk
p1034
ag118
aVdollar
p1035
ag96
aVhitch
p1036
aVsawhorse
p1037
aVsawbuck
p1038
asS'himalayas'
p1039
(lp1040
VHimalaya
p1041
aVHimalayas
p1042
asS'antactica'
p1043
(lp1044
sS'contract'
p1045
(lp1046
Vcompact
p1047
aVreduce
p1048
aVnarrow
p1049
aVabbreviate
p1050
aVget
p1051
aVabridge
p1052
aVcompress
p1053
aVcondense
p1054
aVsign
p1055
aVcut
p1056
aVforeshorten
p1057
aVconcentrate
p1058
aVtake
p1059
aVundertake
p1060
aVdeclaration
p1061
aVpress
p1062
aVconstrict
p1063
aVsqueeze
p1064
aVshrink
p1065
aVshorten
p1066
asS'bow'
p1067
(lp1068
Vobeisance
p1069
aVbowknot
p1070
aVaccede
p1071
aVcrouch
p1072
aVdefer
p1073
aVprow
p1074
aVfore
p1075
aVstem
p1076
aVstoop
p1077
aVarc
p1078
aVsubmit
p1079
aVbowing
p1080
aVbend
p1081
asS'soldier'
p1082
(lp1083
sS'berry'
p1084
(lp1085
VBerry
p1086
asS'witch'
p1087
(lp1088
VWiccan
p1089
aVbewitch
p1090
aVbeldame
p1091
aVenchant
p1092
aVbeldam
p1093
aVhex
p1094
aVhag
p1095
aVglamour
p1096
aVjinx
p1097
aVcrone
p1098
aVenchantress
p1099
asS'casino'
p1100
(lp1101
Vcassino
p1102
asS'head'
p1103
(lp1104
Vpoint
p1105
aVcapitulum
p1106
aVmind
p1107
aVdirect
p1108
aVpromontory
p1109
aVpsyche
p1110
aVheadland
p1111
aVstraits
p1112
aVheadway
p1113
aVpass
p1114
aVforefront
p1115
aVchannelize
p1116
aVmanoeuver
p1117
aVprincipal
p1118
aVlead
p1119
aVquestion
p1120
aVdrumhead
p1121
aVmanoeuvre
p1122
aVfountainhead
p1123
aVmaneuver
p1124
aVforeland
p1125
aVheadspring
p1126
aVbrain
p1127
aVcaput
p1128
aVheader
p1129
aVguide
p1130
aVchannelise
p1131
aVchief
p1132
aVnous
p1133
aVheading
p1134
aVsteer
p1135
asS'apple'
p1136
(lp1137
sS'stream'
p1138
(lp1139
Vteem
p1140
aVpelt
p1141
aVflow
p1142
aVpour
p1143
aVpullulate
p1144
aVcurrent
p1145
aVswarm
p1146
aVwatercourse
p1147
asS'point'
p1148
(lp1149
Vrepoint
p1150
aVshow
p1151
aVgunpoint
p1152
aVperiod
p1153
ag1116
aVorient
p1154
aVaim
p1155
aVtip
p1156
aVdetail
p1157
ag1117
aVindicate
p1158
aVcharge
p1159
ag1122
aVbespeak
p1160
aVsharpen
p1161
aVluff
p1162
aVdesignate
p1163
ag1124
aVhead
p1164
aVdegree
p1165
aVstop
p1166
aVspot
p1167
aVbetoken
p1168
ag1108
aVpeak
p1169
ag911
aVpointedness
p1170
aVtarget
p1171
aVlevel
p1172
aVsignal
p1173
aVtaper
p1174
ag1131
aVitem
p1175
aVplace
p1176
aVdot
p1177
ag1130
ag1135
asS'egypt'
p1178
(lp1179
VEgypt
p1180
asS'africa'
p1181
(lp1182
VAfrica
p1183
asS'pole'
p1184
(lp1185
Vterminal
p1186
aVperch
p1187
aVPole
p1188
aVpunt
p1189
aVrod
p1190
asS'pound'
p1191
(lp1192
Vlumber
p1193
aVPound
p1194
aVlb
p1195
aVpoke
p1196
aVbeat
p1197
aVram
p1198
aVquid
p1199
aVpounding
p1200
aVpunt
p1201
aVlbf.
p1202
aVthump
p1203
aVimpound
p1204
aVhammer
p1205
aVhammering
p1206
asS'smuggler'
p1207
(lp1208
Vrunner
p1209
aVcontrabandist
p1210
aVmoon-curser
p1211
asS'duck'
p1212
(lp1213
Vdodge
p1214
aVdip
p1215
aVsidestep
p1216
aVevade
p1217
aVparry
p1218
aVelude
p1219
aVskirt
p1220
aVdouse
p1221
aVcircumvent
p1222
aVhedge
p1223
aVfudge
p1224
asS'table'
p1225
(lp1226
Vdefer
p1227
aVprorogue
p1228
aVtabularise
p1229
aVremit
p1230
aVboard
p1231
aVshelve
p1232
aVmesa
p1233
aVpostpone
p1234
aVtabulate
p1235
aVtabularize
p1236
asS'belt'
p1237
(lp1238
Vknock
p1239
aVwhang
p1240
aVsmash
p1241
aVswath
p1242
aVbang
p1243
aVrap
p1244
aVwhack
p1245
aVbash
p1246
asS'turkey'
p1247
(lp1248
VTurkey
p1249
aVjoker
p1250
aVbomb
p1251
ag31
asS'plot'
p1252
(lp1253
Vdiagram
p1254
aVgame
p1255
aVplat
p1256
aVpatch
p1257
asS'eye'
p1258
(lp1259
Vheart
p1260
aVeyeball
p1261
aVcenter
p1262
aVoptic
p1263
aVcentre
p1264
aVoculus
p1265
aVmiddle
p1266
asS'angel'
p1267
(lp1268
VAngel
p1269
aVbacker
p1270
aVsaint
p1271
asS'hospital'
p1272
(lp1273
Vinfirmary
p1274
asS'tail'
p1275
(lp1276
Vbum
p1277
aVseat
p1278
aVtag
p1279
aVempennage
p1280
aVstern
p1281
aVkeister
p1282
aVchase
p1283
aVprat
p1284
aVbottom
p1285
aVbuns
p1286
aVbehind
p1287
aVtush
p1288
aVrump
p1289
aVfanny
p1290
aVass
p1291
aVpoop
p1292
aVtrack
p1293
aVtooshie
p1294
aVtrail
p1295
aVposterior
p1296
aVhindquarters
p1297
aVbutt
p1298
aVnates
p1299
aVshadow
p1300
aVrear
p1301
aVarse
p1302
aVbuttocks
p1303
aVdock
p1304
aVbackside
p1305
aVshadower
p1306
aVderriere
p1307
aVdog
p1308
aVcan
p1309
aVfundament
p1310
aVbob
p1311
aVquarter
p1312
asS'france'
p1313
(lp1314
VFrance
p1315
asS'suit'
p1316
(lp1317
Vcase
p1318
aVwooing
p1319
aVfit
p1320
aVbeseem
p1321
aVlawsuit
p1322
aVaccommodate
p1323
aVcausa
p1324
aVbecome
p1325
aVcourtship
p1326
aVcause
p1327
aVbefit
p1328
aVcourting
p1329
asS'stadium'
p1330
(lp1331
Varena
p1332
aVbowl
p1333
asS'spike'
p1334
(lp1335
Vlace
p1336
aVtransfix
p1337
aVempale
p1338
aVfortify
p1339
aVcapitulum
p1340
aVimpale
p1341
aVspindle
p1342
aVear
p1343
asS'strike'
p1344
(lp1345
Vtap
p1346
aVexcise
p1347
aVscratch
p1348
aVmove
p1349
aVdiscover
p1350
aVattain
p1351
aVrap
p1352
aVmint
p1353
aVtake
p1354
aVhit
p1355
aVimpress
p1356
aVstrickle
p1357
aVbang
p1358
aVfall
p1359
aVaffect
p1360
aVcoin
p1361
ag542
aVsmash
p1362
aVexpunge
p1363
aVassume
p1364
aVsmasher
p1365
aVten-strike
p1366
asS'helicopter'
p1367
(lp1368
Veggbeater
p1369
aVwhirlybird
p1370
aVchopper
p1371
asS'bill'
p1372
(lp1373
Vhandbill
p1374
aVflier
p1375
aVbeak
p1376
aVvizor
p1377
aVinvoice
p1378
aVmeasure
p1379
aVbanknote
p1380
aVneb
p1381
aVnote
p1382
aVcharge
p1383
aVvisor
p1384
aVgreenback
p1385
aVcircular
p1386
aVnotice
p1387
aVposting
p1388
aVnib
p1389
aVposter
p1390
aVflyer
p1391
aVpeak
p1392
aVbroadsheet
p1393
aVpecker
p1394
aVcard
p1395
aVaccount
p1396
aVplacard
p1397
aVbroadside
p1398
aVbillhook
p1399
aVeyeshade
p1400
aVthrowaway
p1401
asS'limousine'
p1402
(lp1403
Vlimo
p1404
asS'calf'
p1405
(lp1406
Vcalfskin
p1407
aVsura
p1408
asS'engine'
p1409
(lp1410
Vlocomotive
p1411
asS'life'
p1412
(lp1413
Vliving
p1414
aVsprightliness
p1415
aVlifespan
p1416
aVspirit
p1417
aVliveliness
p1418
aVanimation
p1419
aVlifetime
p1420
aValiveness
p1421
aVlife-time
p1422
aVbiography
p1423
asS'diamond'
p1424
(lp1425
Vrhomb
p1426
aVadamant
p1427
aVinfield
p1428
aVrhombus
p1429
asS'conductor'
p1430
(lp1431
Vdirector
p1432
asS'fire'
p1433
(lp1434
Vterminate
p1435
aVsack
p1436
aVfervour
p1437
aVelicit
p1438
aVarouse
p1439
aVflack
p1440
aVprovoke
p1441
aVraise
p1442
aVfervidness
p1443
aVflaming
p1444
aVattack
p1445
aVfervor
p1446
aVfuel
p1447
aVevoke
p1448
aVburn
p1449
aVardor
p1450
aVdismiss
p1451
aVdisplace
p1452
aVardour
p1453
aVfervency
p1454
aVdischarge
p1455
aVblast
p1456
aVflak
p1457
aVfiring
p1458
aVenkindle
p1459
aVflame
p1460
aVcan
p1461
aVkindle
p1462
asS'gas'
p1463
(lp1464
Vblow
p1465
aVthrottle
p1466
aVboast
p1467
aVaccelerator
p1468
aVpetrol
p1469
aVgasconade
p1470
aVgasoline
p1471
aVflatulence
p1472
aVgun
p1473
aVgasolene
p1474
aVflatulency
p1475
aVtout
p1476
aVbrag
p1477
aVswash
p1478
aVbluster
p1479
aVvaunt
p1480
asS'scuba_diver'
p1481
(lp1482
sS'missile'
p1483
(lp1484
Vprojectile
p1485
asS'glass'
p1486
(lp1487
Vmethamphetamine
p1488
aVglaze
p1489
aVshabu
p1490
aVice
p1491
aVchalk
p1492
aVcrank
p1493
aVglassful
p1494
aVMethedrine
p1495
aVmeth
p1496
aVtrash
p1497
aVspyglass
p1498
aVdeoxyephedrine
p1499
asS'berlin'
p1500
(lp1501
VBerlin
p1502
asS'train'
p1503
(lp1504
Vcoach
p1505
aVcaravan
p1506
aVdirect
p1507
aVgearing
p1508
ag587
ag589
aVgear
p1509
aVdiscipline
p1510
aVeducate
p1511
aVdevelop
p1512
aVprepare
p1513
aVgeartrain
p1514
aVcheck
p1515
aVtake
p1516
aVstring
p1517
aVrail
p1518
aVtrail
p1519
aVcondition
p1520
aVschool
p1521
ag583
aVgroom
p1522
aVaim
p1523
asS'wake'
p1524
(lp1525
Vignite
p1526
aVwaken
p1527
aVarouse
p1528
aVbackwash
p1529
aVrouse
p1530
aVheat
p1531
aVinflame
p1532
aVviewing
p1533
aVWake
p1534
aVawake
p1535
aVaftermath
p1536
aVawaken
p1537
asS'stick'
p1538
(lp1539
Vwedge
p1540
aVspliff
p1541
ag364
aVreefer
p1542
aVsting
p1543
ag365
aVcohere
p1544
ag403
aVpin
p1545
ag371
ag400
ag375
aVadhere
p1546
ag377
aVcling
p1547
aVlodge
p1548
aVpeg
p1549
ag370
ag386
aVbeat
p1550
ag388
ag389
aVstay
p1551
ag390
aVjoint
p1552
ag396
aVcleave
p1553
ag381
aVbind
p1554
aVdeposit
p1555
aVjoystick
p1556
aVbond
p1557
asS'rabbit'
p1558
(lp1559
Vcony
p1560
aVhare
p1561
aVlapin
p1562
aVconey
p1563
asS'olive'
p1564
(lp1565
sS'hole'
p1566
(lp1567
Vmaw
p1568
ag298
ag300
ag303
aVhollow
p1569
aVjam
p1570
aVtrap
p1571
aVyap
p1572
aVcakehole
p1573
aVgob
p1574
ag312
asS'piano'
p1575
(lp1576
Vsoftly
p1577
aVpianissimo
p1578
aVpianoforte
p1579
aVsoft
p1580
aVforte-piano
p1581
asS'pilot'
p1582
(lp1583
Vfly
p1584
aVcowcatcher
p1585
aVbuffer
p1586
aVnavigate
p1587
aVfender
p1588
aVaviate
p1589
aVarchetype
p1590
aVoriginal
p1591
asS'sound'
p1592
(lp1593
Vlevelheaded
p1594
aVheavy
p1595
aVstrait
p1596
aVwell-grounded
p1597
aVlevel-headed
p1598
aVreasoned
p1599
aVhealthy
p1600
aVvocalize
p1601
aVvocalise
p1602
aVfathom
p1603
aVlegal
p1604
aVvoice
p1605
aVphone
p1606
aVeffectual
p1607
aVgood
p1608
aVwakeless
p1609
aVprofound
p1610
aVgo
p1611
aVaudio
p1612
aVintelligent
p1613
asS'honey'
p1614
(lp1615
Vdear
p1616
aVdearest
p1617
aVlove
p1618
aVbeloved
p1619
asS'novel'
p1620
(lp1621
Vfresh
p1622
aVrefreshing
p1623
aVnew
p1624
asS'laser'
p1625
(lp1626
sS'tokyo'
p1627
(lp1628
VYeddo
p1629
aVYedo
p1630
aVTokio
p1631
aVEdo
p1632
aVTokyo
p1633
asS'car'
p1634
(lp1635
Vrailcar
p1636
aVauto
p1637
aVautomobile
p1638
aVmachine
p1639
aVmotorcar
p1640
aVgondola
p1641
asS'mount'
p1642
(lp1643
Vmountain
p1644
aVbacking
p1645
aVride
p1646
aVrise
p1647
aVsetting
p1648
aVbestride
p1649
aVwax
p1650
aVclimb
p1651
asS'cap'
p1652
(lp1653
Vceiling
p1654
aVcrown
p1655
aVdetonator
p1656
aVroof
p1657
aVjacket
p1658
ag851
aVcapital
p1659
aVpileus
p1660
aVcrownwork
p1661
aVcrest
p1662
aVhood
p1663
asS'soul'
p1664
(lp1665
Vsomeone
p1666
aVsomebody
p1667
aVpsyche
p1668
aVperson
p1669
aVindividual
p1670
aVmortal
p1671
aVsoulfulness
p1672
asS'air'
p1673
(lp1674
Vvent
p1675
aVpublicize
p1676
aVatmosphere
p1677
aVventilate
p1678
aVaerate
p1679
aVbeam
p1680
aVtransmit
p1681
aVzephyr
p1682
aVsend
p1683
aVpublicise
p1684
aVbroadcast
p1685
ag172
aVbreeze
p1686
aVbare
p1687
aVaura
p1688
aVairwave
p1689
aVaviation
p1690
ag146
aVline
p1691
ag164
asS'cast'
p1692
(lp1693
g768
aVshed
p1694
aVstray
p1695
aVframe
p1696
aVcontrive
p1697
aVshape
p1698
ag772
aVvagabond
p1699
aVhurtle
p1700
aVmold
p1701
aVwander
p1702
ag791
ag774
aVstamp
p1703
ag775
aVswan
p1704
ag776
ag777
aVcouch
p1705
aVtramp
p1706
ag779
ag780
aVroll
p1707
aVmould
p1708
aVdraw
p1709
aVcasting
p1710
aVform
p1711
ag782
ag784
aVdrift
p1712
ag785
aVredact
p1713
ag786
aVhurl
p1714
aVput
p1715
aVthrow
p1716
aVramble
p1717
aVdrop
p1718
ag790
aVcat
p1719
aVproject
p1720
aVrange
p1721
aVrove
p1722
aVroam
p1723
asS'tag'
p1724
(lp1725
Vrag
p1726
aVtatter
p1727
ag1293
ag1308
aVmark
p1728
ag1295
aVtail
p1729
aVshred
p1730
aVticket
p1731
aVlabel
p1732
ag1283
asS'drill'
p1733
(lp1734
Vpractise
p1735
aVrecitation
p1736
aVpractice
p1737
aVbore
p1738
aVexercise
p1739
asS'root'
p1740
(lp1741
Vorigin
p1742
aVascendent
p1743
aVrootle
p1744
aVascendant
p1745
aVantecedent
p1746
aVradical
p1747
aVrout
p1748
aVsolution
p1749
aVstem
p1750
aVsource
p1751
aVtheme
p1752
aVbase
p1753
aVsettle
p1754
aVrootage
p1755
aVetymon
p1756
aVancestor
p1757
aVbeginning
p1758
asS'robin'
p1759
(lp1760
Vredbreast
p1761
asS'thief'
p1762
(lp1763
Vstealer
p1764
asS'heart'
p1765
(lp1766
Vnerve
p1767
aVkernel
p1768
aVnitty-gritty
p1769
aVessence
p1770
aVwarmheartedness
p1771
ag1266
aVnub
p1772
aVspunk
p1773
aVeye
p1774
aVtenderness
p1775
aVsum
p1776
aVbosom
p1777
aVspirit
p1778
aVpump
p1779
aVaffectionateness
p1780
aVcore
p1781
aVgist
p1782
ag1264
aVphilia
p1783
aVmarrow
p1784
aVticker
p1785
aVmettle
p1786
aVfondness
p1787
aVmeat
p1788
aVsubstance
p1789
ag1262
aVwarmness
p1790
aVpith
p1791
aVinwardness
p1792
aVaffection
p1793
asS'shark'
p1794
(lp1795
sS'pyramid'
p1796
(lp1797
VPyramid
p1798
asS'tap'
p1799
(lp1800
Vpink
p1801
aVknock
p1802
aVpat
p1803
aVhydrant
p1804
aVspigot
p1805
aVtip
p1806
aVdab
p1807
aVbeg
p1808
aVwiretap
p1809
aVexploit
p1810
ag247
aVrap
p1811
aVstrike
p1812
aVsolicit
p1813
aVbug
p1814
aVtapdance
p1815
asS'figure'
p1816
(lp1817
Venvision
p1818
aVflesh
p1819
aVsoma
p1820
aVframe
p1821
aVnumber
p1822
aVfancy
p1823
aVshape
p1824
aVdesign
p1825
aVvisualize
p1826
aVcalculate
p1827
aVpattern
p1828
aVphysique
p1829
aVforecast
p1830
aVvisualise
p1831
aVfig
p1832
aVimage
p1833
aVbuild
p1834
aVpicture
p1835
aVdigit
p1836
aVform
p1837
aVreckon
p1838
aVanatomy
p1839
aVchassis
p1840
aVestimate
p1841
aVcypher
p1842
aVcompute
p1843
aVname
p1844
aVsee
p1845
aVproject
p1846
aVcipher
p1847
aVenter
p1848
aVbod
p1849
aVtrope
p1850
asS'mexico'
p1851
(lp1852
VMexico
p1853
asS'pie'
p1854
(lp1855
VPIE
p1856
asS'lock'
p1857
(lp1858
Vengage
p1859
aVringlet
p1860
aVinterlock
p1861
aVinterlace
p1862
aVmesh
p1863
aVwhorl
p1864
aVcurl
p1865
aVoperate
p1866
asS'india'
p1867
(lp1868
VBharat
p1869
aVIndia
p1870
asS'agent'
p1871
(lp1872
Vbroker
p1873
aVfactor
p1874
asS'parachute'
p1875
(lp1876
Vjump
p1877
aVchute
p1878
asS'carrot'
p1879
(lp1880
sS'slip'
p1881
(lp1882
Vslew
p1883
aVpillowcase
p1884
aVeluding
p1885
aVshimmy
p1886
aVgaucherie
p1887
aVstrip
p1888
aVskid
p1889
aVteddy
p1890
aVslickness
p1891
aVslick
p1892
aVchemise
p1893
aVluxate
p1894
aVmooring
p1895
aVtrip
p1896
aVsolecism
p1897
aVsneak
p1898
aVsplay
p1899
aVcutting
p1900
aVgaffe
p1901
aVslipperiness
p1902
aVslip-up
p1903
aVslue
p1904
aVcase
p1905
aVparapraxis
p1906
aVberth
p1907
aVmoorage
p1908
aVmiscue
p1909
aVerr
p1910
aVshift
p1911
aVslide
p1912
aVsideslip
p1913
aVelusion
p1914
aVdislocate
p1915
aVsteal
p1916
aVmistake
p1917
asS'march'
p1918
(lp1919
Vexhibit
p1920
aVMar
p1921
aVMArch
p1922
aVparade
p1923
aVprocess
p1924
aVbutt
p1925
aVedge
p1926
aVabut
p1927
aVmarchland
p1928
aVadjoin
p1929
aVdemonstrate
p1930
aVMarch
p1931
aVmarching
p1932
aVborder
p1933
aVborderland
p1934
asS'mouse'
p1935
(lp1936
Vpussyfoot
p1937
aVshiner
p1938
aVsneak
p1939
aVcreep
p1940
asS'court'
p1941
(lp1942
Vtribunal
p1943
aVCourt
p1944
aVhomage
p1945
aVjudicature
p1946
aVcourtyard
p1947
aVlawcourt
p1948
aVwoo
p1949
aVromance
p1950
aVcourtroom
p1951
aVsolicit
p1952
asS'doctor'
p1953
(lp1954
VMD
p1955
aVmedico
p1956
aVDoctor
p1957
aVdoc
p1958
aVfix
p1959
aVsophisticate
p1960
aVphysician
p1961
aVrestore
p1962
aVDr.
p1963
aVmend
p1964
aVrepair
p1965
aVbushel
p1966
asS'dress'
p1967
(lp1968
Vtrim
p1969
aVset
p1970
aVclip
p1971
aVgarment
p1972
aVgarb
p1973
aVcrop
p1974
aVsnip
p1975
aVhabilitate
p1976
aVclothe
p1977
aVenclothe
p1978
aVplume
p1979
aVfull-dress
p1980
aVlop
p1981
aVattire
p1982
aVgarnish
p1983
aVtog
p1984
aVcoiffure
p1985
aVprimp
p1986
aVdo
p1987
aVcoiffe
p1988
aVraiment
p1989
aVcoif
p1990
aVarrange
p1991
aVfrock
p1992
aVprune
p1993
aVgroom
p1994
aVpreen
p1995
aVdecorate
p1996
aVapparel
p1997
aVcurry
p1998
aVclothes
p1999
asS'cross'
p2000
(lp2001
Vtraverse
p2002
aVthwart
p2003
aVill-tempered
p2004
aVcrabbed
p2005
aVcrossbreed
p2006
aVcrossbreeding
p2007
aVCross
p2008
aVhybridise
p2009
aVqueer
p2010
aVgrouchy
p2011
aVinterbreed
p2012
aVcrabby
p2013
aVspan
p2014
aVhybrid
p2015
aVmark
p2016
aVtrack
p2017
aVsweep
p2018
aVthwartwise
p2019
aVintersect
p2020
aVhybridisation
p2021
aVhybridization
p2022
aVcrisscross
p2023
aVfrustrate
p2024
aVbaffle
p2025
aVhybridize
p2026
aVfoil
p2027
aVbad-tempered
p2028
aVspoil
p2029
aVbilk
p2030
aVhybridizing
p2031
aVtransverse
p2032
aVtransversal
p2033
aVcover
p2034
aVcrossing
p2035
aVgrumpy
p2036
aVscotch
p2037
aVinterbreeding
p2038
aVfussy
p2039
asS'mole'
p2040
(lp2041
Vgroyne
p2042
aVbulwark
p2043
aVcounterspy
p2044
aVjetty
p2045
aVbreakwater
p2046
aVseawall
p2047
aVmol
p2048
aVgroin
p2049
asS'horseshoe'
p2050
(lp2051
Vshoe
p2052
asS'forest'
p2053
(lp2054
Vwood
p2055
aVafforest
p2056
aVwoodland
p2057
aVwoods
p2058
aVtimberland
p2059
aVtimber
p2060
asS'wall'
p2061
(lp2062
Vparies
p2063
aVfence
p2064
aVbulwark
p2065
ag693
ag694
aVrampart
p2066
asS'ray'
p2067
(lp2068
Virradiation
p2069
aVirradiate
p2070
aVre
p2071
aVshaft
p2072
aVbeam
p2073
aVradiate
p2074
asS'beach'
p2075
(lp2076
sS'pan'
p2077
(lp2078
Vtrash
p2079
aVPan
p2080
asS'stock'
p2081
(lp2082
g139
ag140
aVlivestock
p2083
aVtired
p2084
aVsprout
p2085
aVbroth
p2086
aVold-hat
p2087
aVstrain
p2088
aVcarry
p2089
aVbanal
p2090
aVcaudex
p2091
ag149
aVwell-worn
p2092
ag165
aVbreed
p2093
aVtimeworn
p2094
aVstockpile
p2095
aVinventory
p2096
aVgunstock
p2097
aVneckcloth
p2098
aVcommonplace
p2099
aVstandard
p2100
aVfund
p2101
ag161
ag162
aVline
p2102
aVshopworn
p2103
ag151
ag166
ag170
aVhackneyed
p2104
aVgillyflower
p2105
aVstore
p2106
aVtrite
p2107
aVthreadbare
p2108
asS'satellite'
p2109
(lp2110
Vplanet
p2111
aVorbiter
p2112
asS'oil'
p2113
(lp2114
Vanoint
p2115
aVinunct
p2116
aVpetroleum
p2117
aVembrocate
p2118
aVcrude
p2119
aVanele
p2120
asS'spot'
p2121
(lp2122
Vspy
p2123
aVsmirch
p2124
aVrecognise
p2125
aVoffice
p2126
aVpoint
p2127
aVrecognize
p2128
aVdaub
p2129
aVtouch
p2130
aVmaculation
p2131
aVpip
p2132
aVpost
p2133
aVdiscern
p2134
aVblot
p2135
aVspeckle
p2136
aVblob
p2137
aVfleck
p2138
aVdapple
p2139
aVslur
p2140
aVbillet
p2141
aVsmudge
p2142
aVdescry
p2143
aVsituation
p2144
aVdistinguish
p2145
aVbit
p2146
aVstain
p2147
aVberth
p2148
aVblemish
p2149
aVespy
p2150
aVsmear
p2151
aVpatch
p2152
aVplace
p2153
aVposition
p2154
aVspotlight
p2155
asS'lab'
p2156
(lp2157
Vlaboratory
p2158
asS'hand'
p2159
(lp2160
Vgive
p2161
aVdeal
p2162
aVscript
p2163
aVmitt
p2164
aVpaw
p2165
aVreach
p2166
aVmanus
p2167
aVpass
p2168
aVhandwriting
p2169
asS'scientist'
p2170
(lp2171
sS'plane'
p2172
(lp2173
Vshave
p2174
aVflat
p2175
aVsheet
p2176
aVaeroplane
p2177
aVlevel
p2178
aVskim
p2179
aVplaner
p2180
aVairplane
p2181
asS'olympus'
p2182
(lp2183
VOlimbos
p2184
aVOlympus
p2185
asS'unicorn'
p2186
(lp2187
sS'date'
p2188
(lp2189
Vsee
p2190
aVengagement
p2191
aVappointment
p2192
aVescort
p2193
asS'whale'
p2194
(lp2195
Vgiant
p2196
aVheavyweight
p2197
ag215
asS'ice_cream'
p2198
(lp2199
Vicecream
p2200
asS'lap'
p2201
(lp2202
Vlick
p2203
aVlave
p2204
aVoverlap
p2205
aVwash
p2206
aVswish
p2207
ag328
aVswoosh
p2208
aVswosh
p2209
aVcircle
p2210
asS'pheonix'
p2211
(lp2212
sS'kid'
p2213
(lp2214
Vtiddler
p2215
aVchaff
p2216
aVnipper
p2217
aVbanter
p2218
aVjosh
p2219
aVtyke
p2220
aVjolly
p2221
aVKyd
p2222
aVkidskin
p2223
aVnestling
p2224
aVyoungster
p2225
aVchild
p2226
aVfry
p2227
aVshaver
p2228
aVtike
p2229
aVminor
p2230
aVKid
p2231
asS'alps'
p2232
(lp2233
VAlps
p2234
aValp
p2235
asS'slug'
p2236
(lp2237
Vslog
p2238
aVpoke
p2239
aVbullet
p2240
aVswig
p2241
aVstagnate
p2242
aVpunch
p2243
aVclout
p2244
aVidle
p2245
aVlick
p2246
aVlaze
p2247
aVsluggard
p2248
aVbiff
p2249
asS'theater'
p2250
(lp2251
Vhouse
p2252
aVdramatics
p2253
aVdramaturgy
p2254
aVtheatre
p2255
aVfield
p2256
asS'center'
p2257
(lp2258
g1260
ag1768
ag1769
ag1770
aVpore
p2259
aVfocus
p2260
ag1266
ag1772
aVhalfway
p2261
ag1774
ag1776
ag1781
ag1782
ag1264
aVmidpoint
p2262
aVsnapper
p2263
aVconcentrate
p2264
ag1784
ag1789
ag1788
aVcenterfield
p2265
aVplaza
p2266
aVmidway
p2267
ag1791
aVmall
p2268
ag1792
aVrivet
p2269
asS'light'
p2270
(lp2271
Vignite
p2272
aVperch
p2273
aVsluttish
p2274
aVluminance
p2275
aVilluminate
p2276
aVlightly
p2277
aValight
p2278
aVunaccented
p2279
aVwakeful
p2280
aVlight-colored
p2281
aVillumination
p2282
aVunclouded
p2283
aVwanton
p2284
aVillumine
p2285
aVabstemious
p2286
aVtwinkle
p2287
aVfaint
p2288
aVsparkle
p2289
aVeasy
p2290
aVscant
p2291
aVswooning
p2292
aVpromiscuous
p2293
aVunhorse
p2294
aVclean
p2295
aVLight
p2296
aVlow-cal
p2297
aVloose
p2298
aVweak
p2299
aVignitor
p2300
aVluminousness
p2301
aVlighting
p2302
aVlighter
p2303
aVfall
p2304
aVspark
p2305
aVlite
p2306
aVlightness
p2307
aVtripping
p2308
aVshort
p2309
aVlightheaded
p2310
aVigniter
p2311
aVluminosity
p2312
aVclear
p2313
aVbrightness
p2314
aVidle
p2315
aVdismount
p2316
aVlightsome
p2317
aVillume
p2318
aVcalorie-free
p2319
aVlight-headed
p2320
asS'platypus'
p2321
(lp2322
Vduckbill
p2323
asS'robot'
p2324
(lp2325
Vgolem
p2326
aVautomaton
p2327
asS'dragon'
p2328
(lp2329
VDraco
p2330
aVtartar
p2331
aVfiredrake
p2332
aVDragon
p2333
asS'switch'
p2334
(lp2335
Vinterchange
p2336
aVthrow
p2337
aValternate
p2338
aVexchange
p2339
aVshift
p2340
aVtransposition
p2341
aVsubstitution
p2342
aVflip
p2343
aVtrade
p2344
aVtack
p2345
aVflip-flop
p2346
aVswap
p2347
aVpermutation
p2348
aVswop
p2349
aVswitching
p2350
aVchange
p2351
aVreplacement
p2352
asS'rome'
p2353
(lp2354
VRome
p2355
aVRoma
p2356
asS'green'
p2357
(lp2358
Vgullible
p2359
aVunripened
p2360
aVjet
p2361
aVgreens
p2362
aVunripe
p2363
aVK
aVpark
p2364
aVcommons
p2365
aVlight-green
p2366
aVviridity
p2367
aVGreen
p2368
aVcommon
p2369
aVgreenish
p2370
aVimmature
p2371
aVdark-green
p2372
aVfleeceable
p2373
aVgreenness
p2374
asS'bottle'
p2375
(lp2376
Vbottleful
p2377
asS'ambulance'
p2378
(lp2379
sS'model'
p2380
(lp2381
Vmould
p2382
aVexemplary
p2383
aVsimulate
p2384
aVsit
p2385
aVpattern
p2386
aVpose
p2387
aVmodelling
p2388
aVsimulation
p2389
aVframework
p2390
aVexemplar
p2391
aVmannequin
p2392
aVmanakin
p2393
aVmodeling
p2394
aVposer
p2395
aVposture
p2396
aVmold
p2397
aVexample
p2398
aVmanikin
p2399
aVmannikin
p2400
asS'straw'
p2401
(lp2402
Vstubble
p2403
aVchaff
p2404
aVwheat
p2405
aVhusk
p2406
aVstalk
p2407
aVstrew
p2408
aVshuck
p2409
asS'snowman'
p2410
(lp2411
sS'deck'
p2412
(lp2413
Vbedeck
p2414
aVcoldcock
p2415
aVdump
p2416
aVfloor
p2417
aVembellish
p2418
aVbeautify
p2419
aVdecorate
p2420
aVgrace
p2421
aVbedight
p2422
aVadorn
p2423
asS'vacuum'
p2424
(lp2425
Vhoover
p2426
aVvoid
p2427
aVvacancy
p2428
aVvacuum-clean
p2429
aVvacuity
p2430
aVemptiness
p2431
asS'press'
p2432
(lp2433
Vcampaign
p2434
aVinsistency
p2435
aVagitate
p2436
aVcrusade
p2437
aVpressing
p2438
aVimperativeness
p2439
aVinsistence
p2440
aVconjure
p2441
ag1047
aVweight-lift
p2442
aVcloset
p2443
aVexhort
p2444
aVfight
p2445
ag304
aVjam
p2446
aVurge
p2447
aVbid
p2448
ag1053
aVpressure
p2449
aVwardrobe
p2450
aVadjure
p2451
ag1064
aVweightlift
p2452
aVbeseech
p2453
aVcontract
p2454
aVentreat
p2455
aViron
p2456
aVpush
p2457
aVweigh
p2458
ag1063
asS'embassy'
p2459
(lp2460
sS'london'
p2461
(lp2462
VLondon
p2463
asS'pitch'
p2464
(lp2465
Vslope
p2466
aVtilt
p2467
aVincline
p2468
aVtar
p2469
aVflip
p2470
aVtoss
p2471
aVmonger
p2472
aVrake
p2473
aVsky
p2474
aVslant
p2475
aVlurch
p2476
aVdelivery
p2477
aVvend
p2478
aVcant
p2479
aVdeliver
p2480
aVpitching
p2481
aVshift
p2482
aVgear
p2483
aVpeddle
p2484
aVhawk
p2485
aVhuckster
p2486
asS'cold'
p2487
(lp2488
Vfrigidness
p2489
aVinsensate
p2490
aVdusty
p2491
aVinhuman
p2492
aVcold-blooded
p2493
aVcoldness
p2494
aVfrigid
p2495
aVstale
p2496
aVfrigidity
p2497
aVmoth-eaten
p2498
asS'web'
p2499
(lp2500
Ventanglement
p2501
aVWWW
p2502
aVvane
p2503
aVnetwork
p2504
aVnet
p2505
asS'death'
p2506
(lp2507
Vdecease
p2508
aVDeath
p2509
aVlast
p2510
aVdying
p2511
aVexpiry
p2512
aVdemise
p2513
aVend
p2514
aVdestruction
p2515
asS'police'
p2516
(lp2517
Vlaw
p2518
aVpatrol
p2519
aVconstabulary
p2520
asS'ham'
p2521
(lp2522
Voveract
p2523
aVjambon
p2524
aVoverplay
p2525
aVHam
p2526
aVgammon
p2527
asS'tablet'
p2528
(lp2529
Vlozenge
p2530
aVpad
p2531
aVpill
p2532
aVtab
p2533
asS'rose'
p2534
(lp2535
Vascend
p2536
aVuprise
p2537
aVjump
p2538
aVarise
p2539
aVroseate
p2540
aVrosiness
p2541
aVprove
p2542
aVgrow
p2543
ag1650
aVrise
p2544
aVlift
p2545
aVsurface
p2546
aVrosebush
p2547
aVdevelop
p2548
aVheighten
p2549
aVrosaceous
p2550
aVrear
p2551
aVmount
p2552
aVoriginate
p2553
aVresurrect
p2554
aVclimb
p2555
aVrebel
p2556
asS'bell'
p2557
(lp2558
Vbuzzer
p2559
aVgong
p2560
aVBell
p2561
aVdoorbell
p2562
aVtoll
p2563
aVcampana
p2564
aVchime
p2565
asS'ketchup'
p2566
(lp2567
Vcetchup
p2568
aVcatsup
p2569
asS'battery'
p2570
(lp2571
Vshelling
p2572
aVbarrage
p2573
aVbombardment
p2574
asS'bermuda'
p2575
(lp2576
VBermuda
p2577
aVBermudas
p2578
asS'board'
p2579
(lp2580
Vroom
p2581
aVgameboard
p2582
aVadd-in
p2583
aVplug-in
p2584
aVtable
p2585
aVplank
p2586
aVcard
p2587
aVpanel
p2588
asS'orange'
p2589
(lp2590
VOrange
p2591
aVorangeness
p2592
aVorangish
p2593
asS'mail'
p2594
(lp2595
Vpost
p2596
aVsend
p2597
asS'pass'
p2598
(lp2599
Vauthorize
p2600
aVtranscend
p2601
aVexceed
p2602
aVauthorise
p2603
ag2161
aVtoss
p2604
aVstrait
p2605
aVdraw
p2606
aVwalk
p2607
aVstraits
p2608
aVsurpass
p2609
aVgo
p2610
ag533
aVhappen
p2611
aVconk
p2612
aVoccur
p2613
aVperish
p2614
aVwhirl
p2615
aVpas
p2616
aVoverhaul
p2617
aVlead
p2618
aVqualifying
p2619
aVtop
p2620
aVoffer
p2621
aVoverstep
p2622
aVexcrete
p2623
aVexit
p2624
aVeliminate
p2625
aVpassport
p2626
aVcrack
p2627
aVhap
p2628
aVfall
p2629
aVbye
p2630
aVegest
p2631
aVdecease
p2632
aVchoke
p2633
aVhead
p2634
aVrun
p2635
aVfade
p2636
aVextend
p2637
aVfling
p2638
aVcommunicate
p2639
ag2166
aVhand
p2640
aVexpire
p2641
aVsink
p2642
aVguide
p2643
aVelapse
p2644
aVovertake
p2645
aVdie
p2646
aVlapse
p2647
aVflip
p2648
aVspend
p2649
aVlegislate
p2650
aVevanesce
p2651
aVfleet
p2652
aVpassing
p2653
aVnotch
p2654
ag521
aVclear
p2655
aVcroak
p2656
asS'match'
p2657
(lp2658
Vcatch
p2659
aVcorrespond
p2660
aVpair
p2661
aVtwin
p2662
aVmates
p2663
aVequate
p2664
aVtouch
p2665
aVpit
p2666
aVcheck
p2667
aVfit
p2668
aVequalise
p2669
aVlucifer
p2670
aVgibe
p2671
aVcouple
p2672
aVtally
p2673
aVjibe
p2674
aVmate
p2675
aVpeer
p2676
aVcompeer
p2677
aVrival
p2678
aVequal
p2679
aVoppose
p2680
aVequalize
p2681
aVmeet
p2682
aVagree
p2683
asS'australia'
p2684
(lp2685
VAustralia
p2686
asS'crash'
p2687
(lp2688
Vsmash
p2689
aVclank
p2690
aVram
p2691
aVcollapse
p2692
aVclash
p2693
aVclangour
p2694
aVclangoring
p2695
aVwreck
p2696
aVclang
p2697
aVdash
p2698
aVdoss
p2699
aVgate-crash
p2700
aVclangor
p2701
asS'marble'
p2702
(lp2703
sS'ruler'
p2704
(lp2705
Vswayer
p2706
aVrule
p2707
asS'spell'
p2708
(lp2709
Venchantment
p2710
aVtrance
p2711
aVwhile
p2712
aVpatch
p2713
aVwrite
p2714
aVturn
p2715
aVtour
p2716
aVcharm
p2717
aVgo
p2718
aVimport
p2719
aVpiece
p2720
asS'bat'
p2721
(lp2722
Vlick
p2723
aVdrub
p2724
aVclobber
p2725
aVchiropteran
p2726
aVthrash
p2727
aVat-bat
p2728
aVflutter
p2729
aVcream
p2730
asS'band'
p2731
(lp2732
g322
aVbanding
p2733
aVstria
p2734
aVstripe
p2735
ag323
aVstriation
p2736
aVcircle
p2737
aVring
p2738
aVisthmus
p2739
asS'game'
p2740
(lp2741
Vplot
p2742
aVmettlesome
p2743
aVgritty
p2744
aVhalt
p2745
aVhalting
p2746
aVlame
p2747
aVspunky
p2748
aVstake
p2749
aVback
p2750
aVgamy
p2751
aVgimpy
p2752
aVgage
p2753
aVpunt
p2754
aVbiz
p2755
aVcrippled
p2756
aVspirited
p2757
aVgamey
p2758
asS'compound'
p2759
(lp2760
Vcolonial
p2761
aVheighten
p2762
aVcombine
p2763
aVintensify
p2764
aVdeepen
p2765
asS'foot'
p2766
(lp2767
Vfoundation
p2768
aVinfantry
p2769
aVft
p2770
aVsubstructure
p2771
aVgroundwork
p2772
aVunderstructure
p2773
aVpes
p2774
aVbase
p2775
aVfundament
p2776
aVhoof
p2777
aVpick
p2778
asS'ninja'
p2779
(lp2780
sS'shadow'
p2781
(lp2782
Vphantom
p2783
aVvestige
p2784
aVdwarf
p2785
aVdarkness
p2786
aVtrace
p2787
aVapparition
p2788
ag902
aVdark
p2789
aVtail
p2790
aVphantasma
p2791
aVshade
p2792
ag1306
aVtincture
p2793
aVphantasm
p2794
aVfantasm
p2795
asS'tick'
p2796
(lp2797
g393
aVretick
p2798
aVbeat
p2799
aVclick
p2800
aVticking
p2801
aVmark
p2802
aVcheck
p2803
ag408
asS'day'
p2804
(lp2805
Vdaylight
p2806
aVDay
p2807
aVdaytime
p2808
asS'bank'
p2809
(lp2810
Vrely
p2811
aVcamber
p2812
aVcant
p2813
aVswear
p2814
aVdeposit
p2815
aVtrust
p2816
asS'opera'
p2817
(lp2818
VOpera
p2819
asS'mint'
p2820
(lp2821
Vplenty
p2822
aVdeal
p2823
aVpot
p2824
aVsight
p2825
aVflock
p2826
aVslew
p2827
aVmountain
p2828
ag1361
aVwad
p2829
aVmuckle
p2830
aVpile
p2831
aVlot
p2832
aVmickle
p2833
aVstrike
p2834
aVraft
p2835
aVpassel
p2836
aVhatful
p2837
aVmess
p2838
aVspate
p2839
aVheap
p2840
aVpeck
p2841
aVstack
p2842
aVbatch
p2843
aVmass
p2844
asS'drop'
p2845
(lp2846
g1694
aVoverlook
p2847
aVdrop-off
p2848
aVflatten
p2849
aVdegenerate
p2850
aVmiss
p2851
aVpretermit
p2852
aVdangle
p2853
aVthrow
p2854
aVpearl
p2855
aVdeteriorate
p2856
aVdismiss
p2857
aVfell
p2858
aVsink
p2859
aVfall
p2860
aVbead
p2861
aVdischarge
p2862
aVdribble
p2863
aVcliff
p2864
aVexpend
p2865
aVdriblet
p2866
aVunload
p2867
aVdevolve
p2868
aVomit
p2869
aVdrip
p2870
aVneglect
p2871
aVcast
p2872
aVoverleap
p2873
aVswing
p2874
ag549
aVspend
p2875
aVdrib
p2876
asS'glove'
p2877
(lp2878
Vmitt
p2879
asS'server'
p2880
(lp2881
Vwaiter
p2882
aVhost
p2883
asS'spy'
p2884
(lp2885
Vsleuth
p2886
aVsight
p2887
aVsnoop
p2888
aVstag
p2889
aVspot
p2890
ag2150
ag2143
asS'spine'
p2891
(lp2892
Vrachis
p2893
aVspikelet
p2894
aVpricker
p2895
aVthorn
p2896
aVbackbone
p2897
aVback
p2898
aVprickle
p2899
aVacantha
p2900
aVspur
p2901
aVsticker
p2902
asS'night'
p2903
(lp2904
Vdark
p2905
aVNox
p2906
aVnighttime
p2907
aVNight
p2908
asS'chick'
p2909
(lp2910
Vbiddy
p2911
aVdoll
p2912
aVwench
p2913
aVskirt
p2914
aVbird
p2915
aVdame
p2916
asS'tower'
p2917
(lp2918
Vtugboat
p2919
aVloom
p2920
aVcolumn
p2921
aVpillar
p2922
aVhulk
p2923
aVpredominate
p2924
aVtug
p2925
aVtowboat
p2926
asS'bond'
p2927
(lp2928
Vattach
p2929
aValliance
p2930
aVstick
p2931
aVadhesion
p2932
aVadhesiveness
p2933
ag1554
ag1546
aVtrammel
p2934
aVshackle
p2935
aVattachment
p2936
aVadherence
p2937
aVtie
p2938
aVbail
p2939
aVhamper
p2940
aVBond
p2941
asS'square'
p2942
(lp2943
Vfoursquare
p2944
aVsatisfying
p2945
aVstraightforward
p2946
aVlame
p2947
aVsolid
p2948
aVstraight
p2949
aVhearty
p2950
aVsquarely
p2951
aVfeather
p2952
aVsubstantial
p2953
asS'england'
p2954
(lp2955
VEngland
p2956
asS'telescope'
p2957
(lp2958
Vscope
p2959
asS'czech'
p2960
(lp2961
VCzech
p2962
aVCzechoslovakian
p2963
aVCzechoslovak
p2964
asS'loch_ness'
p2965
(lp2966
sS'fish'
p2967
(lp2968
VPisces
p2969
aVFish
p2970
aVangle
p2971
asS'church'
p2972
(lp2973
sS'crown'
p2974
(lp2975
g1661
aVcoronate
p2976
aVdiadem
p2977
aVtip
p2978
aVtop
p2979
aVcap
p2980
aVCrown
p2981
ag1658
aVsummit
p2982
aVpate
p2983
aVpeak
p2984
aVtreetop
p2985
aVpennant
p2986
aVpoll
p2987
aVcrest
p2988
asS'back'
p2989
(lp2990
Vbackrest
p2991
aVbinding
p2992
aVsecond
p2993
ag2893
aVsupport
p2994
ag2749
ag2753
aVdorsum
p2995
aVendorse
p2996
aVhinder
p2997
ag2897
aVgame
p2998
aVbackwards
p2999
aVrearwards
p3000
aVrear
p3001
aVindorse
p3002
aVspine
p3003
aVhind
p3004
aVcover
p3005
aVrearward
p3006
ag2754
aVbackward
p3007
asS'kiwi'
p3008
(lp3009
VKiwi
p3010
aVapteryx
p3011
asS'chocolate'
p3012
(lp3013
Vcocoa
p3014
aVcoffee
p3015
aVumber
p3016
asS'ball'
p3017
(lp3018
Vclod
p3019
ag705
aVBall
p3020
aVclump
p3021
aVchunk
p3022
ag702
ag713
aVglobe
p3023
ag712
aVlump
p3024
aVglob
p3025
ag707
aVnut
p3026
aVorb
p3027
ag714
aVformal
p3028
asS'jupiter'
p3029
(lp3030
VJupiter
p3031
aVJove
p3032
asS'ring'
p3033
(lp3034
Vringing
p3035
aVhoop
p3036
aVtelephone
p3037
aVecho
p3038
aVgang
p3039
aVresound
p3040
aVborder
p3041
aVskirt
p3042
aVcall
p3043
aVtintinnabulation
p3044
aVphone
p3045
aVpeal
p3046
aVreverberate
p3047
aVmob
p3048
aVdoughnut
p3049
aVhalo
p3050
aVannulus
p3051
aVband
p3052
aVsurround
p3053
aVenviron
p3054
aVpack
p3055
aVknell
p3056
asS'whip'
p3057
(lp3058
Vblister
p3059
aVscald
p3060
aVwhisk
p3061
aVtrounce
p3062
aVstrap
p3063
aVpip
p3064
aVwhiplash
p3065
aVwelt
p3066
aVslash
p3067
aVlash
p3068
aVworst
p3069
aVflog
p3070
aVlather
p3071
asS'canada'
p3072
(lp3073
VCanada
p3074
asS'scale'
p3075
(lp3076
Vplate
p3077
ag340
aVscurf
p3078
aVexfoliation
p3079
aVdescale
p3080
aVsurmount
p3081
asS'lead'
p3082
(lp3083
Vcontribute
p3084
aVdirect
p3085
aVPb
p3086
aVresult
p3087
aVpass
p3088
aVgo
p3089
ag2635
aVtether
p3090
aVchair
p3091
aVprincipal
p3092
aVconduce
p3093
aVhint
p3094
aVleading
p3095
aVtop
p3096
aVtip
p3097
aVlead-in
p3098
aVleash
p3099
aVtake
p3100
aVconduct
p3101
ag135
aVhead
p3102
aVstar
p3103
ag2637
aVtrack
p3104
aVtrail
p3105
aVprecede
p3106
aVleave
p3107
aVlede
p3108
aVsteer
p3109
aVguide
p3110
aVwind
p3111
asS'space'
p3112
(lp3113
Vinfinite
p3114
aVdistance
p3115
aVplace
p3116
aVquad
p3117
aVblank
p3118
asS'tube'
p3119
(lp3120
Vpipe
p3121
aVtubing
p3122
aVunderground
p3123
aVsubway
p3124
aVmetro
p3125
asS'ice'
p3126
(lp3127
g1488
aVicing
p3128
aVglass
p3129
aVfrost
p3130
ag1490
aVICE
p3131
ag1492
aVfrappe
p3132
ag1493
ag1495
aVsparkler
p3133
aVfrosting
p3134
ag1497
ag1496
ag1499
asS'moon'
p3135
(lp3136
Vmoonlight
p3137
aVmoonshine
p3138
aVdaydream
p3139
aVlunation
p3140
aVMoon
p3141
asS'shakespeare'
p3142
(lp3143
VShakespeare
p3144
aVShakspere
p3145
asS'washer'
p3146
(lp3147
sS'temple'
p3148
(lp3149
Vsynagogue
p3150
aVtabernacle
p3151
asS'knife'
p3152
(lp3153
Vtongue
p3154
aVstab
p3155
asS'eagle'
p3156
(lp3157
sS'state'
p3158
(lp3159
Vprovince
p3160
aVcommonwealth
p3161
aVland
p3162
aVcountry
p3163
aVexpress
p3164
aVsay
p3165
aVsubmit
p3166
aVnation
p3167
aVState
p3168
aVposit
p3169
aVDoS
p3170
aVtell
p3171
asS'rock'
p3172
(lp3173
Vstone
p3174
aVtilt
p3175
aVshake
p3176
aVcareen
p3177
aVRock
p3178
aVrock-and-roll
p3179
aVsway
p3180
aVrock'n'roll
p3181
asS'centaur'
p3182
(lp3183
VCentaurus
p3184
aVCentaur
p3185
asS'bolt'
p3186
(lp3187
Vstiffly
p3188
aVrigidly
p3189
aVthunderbolt
p3190
aVsmack
p3191
aVabscond
p3192
aVdeadbolt
p3193
aVbang
p3194
aVslap
p3195
aVdash
p3196
aVabsquatulate
p3197
aVdecamp
p3198
aVgobble
p3199
aVslapdash
p3200
asS'post'
p3201
(lp3202
g2148
aVmail
p3203
ag2126
ag2141
aVstake
p3204
aVspot
p3205
aVsend
p3206
aVstation
p3207
aVplace
p3208
ag2144
aVcarry
p3209
ag2154
aVPost
p3210
aVbrand
p3211
asS'paste'
p3212
(lp3213
Vglue
p3214
aVspread
p3215
asS'princess'
p3216
(lp3217
sS'card'
p3218
(lp3219
g1387
ag1397
ag1388
ag2583
aVwag
p3220
ag1390
aVbill
p3221
aVtease
p3222
aVscorecard
p3223
aVwit
p3224
aVboard
p3225
aVmenu
p3226
ag2584
aVlineup
p3227
aVcarte
p3228
asS'new_york'
p3229
(lp3230
VNY
p3231
asS'yard'
p3232
(lp3233
Vcurtilage
p3234
aVG
aVthou
p3235
aVthousand
p3236
aVgrand
p3237
aVM
aVrailyard
p3238
aVpace
p3239
aVchiliad
p3240
aVgrounds
p3241
aVK
aV1000
p3242
asS'row'
p3243
(lp3244
Vrowing
p3245
aVrun-in
p3246
aVwrangle
p3247
aVcourse
p3248
aVdustup
p3249
aVwords
p3250
aVquarrel
p3251
asS'beijing'
p3252
(lp3253
VBeijing
p3254
aVPeking
p3255
aVPeiping
p3256
asS'tie'
p3257
(lp3258
Vtie-up
p3259
aVnecktie
p3260
ag2929
aVtie-in
p3261
aVbind
p3262
aVcrosstie
p3263
aVwed
p3264
aVdraw
p3265
aVaffiliation
p3266
aVlink
p3267
aVconnect
p3268
aVsplice
p3269
aVsleeper
p3270
aVlinkup
p3271
aVbond
p3272
aVmarry
p3273
aVassociation
p3274
aVstandoff
p3275
asS'swing'
p3276
(lp3277
Vvacillation
p3278
aVcut
p3279
ag2853
aVsweep
p3280
aVlilt
p3281
aVswinging
p3282
aVjive
p3283
aVdrop
p3284
aVsway
p3285
asS'leprechaun'
p3286
(lp3287
sS'luck'
p3288
(lp3289
Vfortune
p3290
aVdestiny
p3291
aVfate
p3292
aVchance
p3293
aVhazard
p3294
aVportion
p3295
aVlot
p3296
aVcircumstances
p3297
asS'octopus'
p3298
(lp3299
Vdevilfish
p3300
asS'block'
p3301
(lp3302
Vobstruct
p3303
aVforget
p3304
aVfreeze
p3305
ag295
aVimmobilise
p3306
aVimmobilize
p3307
aVstymie
p3308
aVstoppage
p3309
aVjam
p3310
aVlug
p3311
ag307
aVhinder
p3312
aVcube
p3313
aVhalt
p3314
aVstop
p3315
aVdeflect
p3316
aVparry
p3317
ag604
ag305
aVembarrass
p3318
aVblocking
p3319
aVkibosh
p3320
aVpulley-block
p3321
aVclosure
p3322
aVpulley
p3323
aVbar
p3324
aVblockage
p3325
aVocclusion
p3326
aVstuff
p3327
ag605
aVstymy
p3328
asS'copper'
p3329
(lp3330
Vcop
p3331
aVfuzz
p3332
aVpig
p3333
aVCu
p3334
aVbull
p3335
asS'bugle'
p3336
(lp3337
Vbugleweed
p3338
asS'washington'
p3339
(lp3340
VWashington
p3341
aVWA
p3342
ag852
asS'hook'
p3343
(lp3344
Vswipe
p3345
aVbait
p3346
aVcrotchet
p3347
aVrob
p3348
aVcrochet
p3349
aVdraw
p3350
aVaccost
p3351
aVsnare
p3352
aVsurcharge
p3353
aVsoak
p3354
aVcome-on
p3355
aVplume
p3356
aVthieve
p3357
aVnobble
p3358
aVpurloin
p3359
aVsolicit
p3360
aVabstract
p3361
aVpilfer
p3362
aVlure
p3363
aVglom
p3364
aVsneak
p3365
aVpluck
p3366
aVfilch
p3367
aVlift
p3368
aVovercharge
p3369
aVaddict
p3370
aVsnitch
p3371
aVsnarf
p3372
aVcabbage
p3373
aVsweetener
p3374
aVcop
p3375
aVfleece
p3376
aVhooking
p3377
aVpinch
p3378
aVclaw
p3379
aVgazump
p3380
asS'brush'
p3381
(lp3382
Vbrushing
p3383
aVcoppice
p3384
aVclash
p3385
aVsweep
p3386
aVbrushwood
p3387
aVskirmish
p3388
aVthicket
p3389
aVencounter
p3390
aVcopse
p3391
asS'comic'
p3392
(lp3393
Vfunny
p3394
aVrisible
p3395
aVmirthful
p3396
aVcomedian
p3397
aVamusing
p3398
aVlaughable
p3399
aVcomical
p3400
asS'maple'
p3401
(lp3402
sS'mercury'
p3403
(lp3404
VMercury
p3405
aVquicksilver
p3406
aVHg
p3407
aVhydrargyrum
p3408
asS'horse'
p3409
(lp3410
Vcavalry
p3411
ag1037
aVknight
p3412
ag1038
aVbuck
p3413
asS'hawk'
p3414
(lp3415
g2472
ag2478
aVpitch
p3416
aVmortarboard
p3417
ag2484
ag2486
asS'van'
p3418
(lp3419
Vcaravan
p3420
aVvanguard
p3421
aVavant-garde
p3422
asS'log'
p3423
(lp3424
Vlogarithm
p3425
aVlumber
p3426
asS'jet'
p3427
(lp3428
Vjet-black
p3429
aVsooty
p3430
aVpitchy
p3431
aVK
aVgreen
p3432
aVcoal-black
p3433
aVfountain
p3434
aVgush
p3435
aVspurt
p3436
aVsquirt
p3437
aVspirt
p3438
asS'sock'
p3439
(lp3440
Vwindsock
p3441
aVwhap
p3442
aVbop
p3443
aVwhop
p3444
aVbonk
p3445
aVdrogue
p3446
aVair-sleeve
p3447
aVbash
p3448
asS'plastic'
p3449
(lp3450
Vmoldable
p3451
aVfictile
p3452
aVformative
p3453
aVshaping
p3454
aVpliant
p3455
asS'draft'
p3456
(lp3457
Vblueprint
p3458
aVoutline
p3459
aVdraught
p3460
aVswig
p3461
aVmuster
p3462
aVgulp
p3463
aVpotation
p3464
aVtipple
p3465
aVconscription
p3466
aVenlist
p3467
aVdrawing
p3468
asS'spring'
p3469
(lp3470
Vjump
p3471
aVform
p3472
aVgive
p3473
aVrebound
p3474
aVleaping
p3475
aVspringtime
p3476
aVbound
p3477
aVoutpouring
p3478
aVreverberate
p3479
aVleap
p3480
aVoutflow
p3481
aVfountain
p3482
aVsaltation
p3483
aVspringiness
p3484
aVresile
p3485
aVrecoil
p3486
aVricochet
p3487
aVbounce
p3488
asS'hollywood'
p3489
(lp3490
VHollywood
p3491
asS'cycle'
p3492
(lp3493
VHz
p3494
aVcycles/second
p3495
aVbicycle
p3496
aVmotorbike
p3497
aVoscillation
p3498
aVhertz
p3499
aVbike
p3500
aVwheel
p3501
aVmotorcycle
p3502
ag652
aVpedal
p3503
aVcps
p3504
aVround
p3505
asS'war'
p3506
(lp3507
Vwarfare
p3508
asS'fork'
p3509
(lp3510
Vramify
p3511
aVbranching
p3512
aVforking
p3513
aVseparate
p3514
aVpitchfork
p3515
aVramification
p3516
aVcrotch
p3517
aVbranch
p3518
aVfurcate
p3519
asS'ivory'
p3520
(lp3521
Vpearl
p3522
aVoff-white
p3523
aVbone
p3524
aVtusk
p3525
asS'torch'
p3526
(lp3527
Vflashlight
p3528
aVblowlamp
p3529
aVblowtorch
p3530
asS'atlantis'
p3531
(lp3532
VAtlantis
p3533
asS'moscow'
p3534
(lp3535
VMoscow
p3536
asS'hotel'
p3537
(lp3538
sS'park'
p3539
(lp3540
Vparkland
p3541
aVballpark
p3542
aVPark
p3543
ag2365
aVgreen
p3544
ag2369
asS'spider'
p3545
(lp3546
Vwanderer
p3547
asS'part'
p3548
(lp3549
Vdepart
p3550
aVdivide
p3551
aVoffice
p3552
aVshare
p3553
aVdisunite
p3554
aVsection
p3555
aVcharacter
p3556
aVstart
p3557
aVrole
p3558
aVsplit
p3559
aVpercentage
p3560
aVfunction
p3561
aVdivision
p3562
aVpersona
p3563
aVpartly
p3564
aVseparate
p3565
aVcomponent
p3566
aVbreak
p3567
aVconstituent
p3568
aVparting
p3569
aVpartially
p3570
aVpiece
p3571
aVregion
p3572
aVportion
p3573
aVcontribution
p3574
aVvoice
p3575
asS'link'
p3576
(lp3577
Vjoin
p3578
aVassociate
p3579
aVnexus
p3580
aVrelate
p3581
aVcolligate
p3582
aVliaison
p3583
aVunite
p3584
ag3261
aVconnection
p3585
aVcontact
p3586
aVyoke
p3587
aVconnectedness
p3588
aVtie
p3589
ag3271
aVconnexion
p3590
aVconnect
p3591
asS'crane'
p3592
(lp3593
VCrane
p3594
aVGrus
p3595
asS'grace'
p3596
(lp3597
Vgoodwill
p3598
aVdeck
p3599
aVblessing
p3600
aVornament
p3601
aVgracility
p3602
aVembellish
p3603
aVthanksgiving
p3604
aVbeautify
p3605
aVdecorate
p3606
aVseemliness
p3607
aVGrace
p3608
aVadorn
p3609
asS'penguin'
p3610
(lp3611
sS'king'
p3612
(lp3613
g48
aVKing
p3614
aVRex
p3615
aVmagnate
p3616
aVbaron
p3617
aVpower
p3618
aVqueen
p3619
aVtycoon
p3620
aVmogul
p3621
asS'roulette'
p3622
(lp3623
sS'litter'
p3624
(lp3625
Vbedding
p3626
asS'bed'
p3627
(lp3628
Vscrew
p3629
aVlayer
p3630
aVretire
p3631
aVlove
p3632
aVbottom
p3633
aVhump
p3634
aVjazz
p3635
aVfuck
p3636
aVbonk
p3637
aVbang
p3638
aVknow
p3639
aVseam
p3640
aVeff
p3641
asS'iron'
p3642
(lp3643
Vpress
p3644
aVcast-iron
p3645
aVFe
p3646
asS'kangaroo'
p3647
(lp3648
sS'palm'
p3649
(lp3650
Vhandle
p3651
aVdecoration
p3652
aVthenar
p3653
aVmedallion
p3654
aVmedal
p3655
aVribbon
p3656
asS'grass'
p3657
(lp3658
Vshop
p3659
aVforage
p3660
aVpot
p3661
aVsupergrass
p3662
ag10
aVpasture
p3663
ag5
aVsess
p3664
aVpasturage
p3665
aVgage
p3666
ag17
aVsens
p3667
aVdope
p3668
ag7
aVweed
p3669
ag9
ag14
aVGrass
p3670
aVeatage
p3671
aVsmoke
p3672
aVskunk
p3673
aVlocoweed
p3674
asS'bridge'
p3675
(lp3676
Vnosepiece
p3677
aVbridgework
p3678
aVspan
p3679
asS'pin'
p3680
(lp3681
Vtholepin
p3682
aVPIN
p3683
aVimmobilize
p3684
aVoarlock
p3685
aVrowlock
p3686
aVtrap
p3687
aVflag
p3688
aVstick
p3689
aVimmobilise
p3690
aVfall
p3691
aVpivot
p3692
aVpeg
p3693
aVthole
p3694
asS'well'
p3695
(lp3696
Veasily
p3697
aVgood
p3698
aVconsiderably
p3699
aVswell
p3700
aVintimately
p3701
aVcomfortably
p3702
aVsubstantially
p3703
aVadvantageously
p3704
aVwellspring
p3705
aVfountainhead
p3706
asS'greece'
p3707
(lp3708
VEllas
p3709
aVGreece
p3710
asS'mine'
p3711
(lp3712
sS'dog'
p3713
(lp3714
Vpawl
p3715
aVwiener
p3716
ag1279
aVfrankfurter
p3717
aVhound
p3718
aVclick
p3719
ag1283
aVandiron
p3720
ag1729
aVwienerwurst
p3721
aVbounder
p3722
ag1293
aVfrank
p3723
ag1295
aVblackguard
p3724
aVweenie
p3725
aVfrump
p3726
aVfiredog
p3727
aVdetent
p3728
aVdog-iron
p3729
aVcad
p3730
aVheel
p3731
aVhotdog
p3732
asS'fly'
p3733
(lp3734
Vvanish
p3735
aVvaporize
p3736
aVrainfly
p3737
aVfell
p3738
ag1589
aVtent-fly
p3739
aVflee
p3740
aVwing
p3741
aVpilot
p3742
asS'file'
p3743
(lp3744
g271
aVcharge
p3745
aVregister
p3746
asS'ship'
p3747
(lp3748
Vembark
p3749
aVsend
p3750
aVtransport
p3751
asS'tooth'
p3752
(lp3753
sS'pit'
p3754
(lp3755
Vstone
p3756
aVquarry
p3757
aVcavity
p3758
aVcolliery
p3759
aVmark
p3760
aVHell
p3761
ag2680
aVpock
p3762
aVperdition
p3763
aVendocarp
p3764
aVfossa
p3765
aVInferno
p3766
aVscar
p3767
aVmatch
p3768
aVpitfall
p3769
asS'check'
p3770
(lp3771
Vcontrol
p3772
ag413
ag414
aVbaulk
p3773
aVchit
p3774
aVhitch
p3775
aVsee
p3776
ag2671
aVcurb
p3777
aVtab
p3778
aVbalk
p3779
aVdeterrent
p3780
ag1510
aVhold
p3781
ag2668
aVstoppage
p3782
ag2802
aVdelay
p3783
aVarrest
p3784
aVchecker
p3785
aVchink
p3786
aVcontain
p3787
aVensure
p3788
aVmoderate
p3789
aVcheckout
p3790
aVchip
p3791
aVmatch
p3792
aVconfirmation
p3793
aVassay
p3794
aVhalt
p3795
aVchequer
p3796
aVhandicap
p3797
aVwatch
p3798
aVascertain
p3799
aVstop
p3800
aVstay
p3801
aVbreak
p3802
aVtrain
p3803
aVbridle
p3804
aVcheque
p3805
ag2673
aVtick
p3806
aVsubstantiation
p3807
ag1520
aVinsure
p3808
aVretard
p3809
aVcrack
p3810
ag2660
ag2683
aVassure
p3811
aVimpediment
p3812
aVverification
p3813
aVhindrance
p3814
ag2674
aVhinderance
p3815
asS'film'
p3816
(lp3817
Vflick
p3818
aVpicture
p3819
aVcinema
p3820
aVcelluloid
p3821
aVmovie
p3822
aVpic
p3823
aVshoot
p3824
ag97
asS'cotton'
p3825
(lp3826
sS'hood'
p3827
(lp3828
Vstrong-armer
p3829
aVtough
p3830
aVcowl
p3831
aVgoon
p3832
aVcowling
p3833
aVcap
p3834
aVpunk
p3835
aVbonnet
p3836
aVhoodlum
p3837
aVthug
p3838
aVtoughie
p3839
asS'lemon'
p3840
(lp3841
Vmaize
p3842
aVgamboge
p3843
aVstinker
p3844
asS'trip'
p3845
(lp3846
Vtrip-up
p3847
aVactivate
p3848
aVmisstep
p3849
aVtripper
p3850
aVtravel
p3851
aVactuate
p3852
aVjaunt
p3853
aVslip
p3854
aVspark
p3855
aVstumble
p3856
aVtrigger
p3857
asS'boot'
p3858
(lp3859
g283
ag285
aVcharge
p3860
aVreboot
p3861
aVkicking
p3862
ag278
ag263
ag272
asS'snow'
p3863
(lp3864
Vblow
p3865
aVC
aVcoke
p3866
aVSnow
p3867
aVsnowfall
p3868
aVhoodwink
p3869
aVbamboozle
p3870
asS'arm'
p3871
(lp3872
Vsubdivision
p3873
aVsleeve
p3874
aVweapon
p3875
aVgird
p3876
aVfortify
p3877
aVbranch
p3878
aVlimb
p3879
asS'note'
p3880
(lp3881
Veminence
p3882
aVremark
p3883
aVtone
p3884
aVnotation
p3885
ag1380
aVnotice
p3886
ag159
aVbill
p3887
aVpreeminence
p3888
aVannotation
p3889
aVmention
p3890
aVobserve
p3891
aVdistinction
p3892
aVline
p3893
aVmark
p3894
ag1385
asS'field'
p3895
(lp3896
Vdiscipline
p3897
aVbattlefield
p3898
aVdomain
p3899
aVtheater
p3900
aVtheatre
p3901
aVarea
p3902
aVplain
p3903
aVstudy
p3904
aVorbit
p3905
aVarena
p3906
aVairfield
p3907
aVsphere
p3908
aVbailiwick
p3909
aVchampaign
p3910
aVbattleground
p3911
aVsubject
p3912
asS'chest'
p3913
(lp3914
Vpectus
p3915
aVbureau
p3916
aVbreast
p3917
aVthorax
p3918
aVdresser
p3919
asS'boom'
p3920
(lp3921
g726
aVgravy
p3922
aVgodsend
p3923
ag734
aVroar
p3924
aVthunder
p3925
aVdin
p3926
aVnail
p3927
aVwindfall
p3928
aVbunce
p3929
aVbonanza
p3930
aVexpand
p3931
aVroaring
p3932
aVflourish
p3933
aVthrive
p3934
asS'mammoth'
p3935
(lp3936
Vgigantic
p3937
asS'cricket'
p3938
(lp3939
sS'club'
p3940
(lp3941
Vclubhouse
p3942
aVguild
p3943
aVgild
p3944
aVnightspot
p3945
aVbludgeon
p3946
aVnightclub
p3947
aVsociety
p3948
aVnine
p3949
aVlodge
p3950
aVgolf-club
p3951
aVcabaret
p3952
aVorder
p3953
asS'play'
p3954
(lp3955
Vrepresent
p3956
aVgaming
p3957
aVrecreate
p3958
aVbring
p3959
aVtrifle
p3960
aVsport
p3961
aVswordplay
p3962
aVcaper
p3963
aVflirt
p3964
aVtoy
p3965
aVdiddle
p3966
aVwreak
p3967
aVshimmer
p3968
aVmanoeuvre
p3969
aVgambling
p3970
aVfrolic
p3971
aVroleplay
p3972
aVmaneuver
p3973
aVrun
p3974
aVwager
p3975
aVbid
p3976
aVspiel
p3977
aVdally
p3978
aVplayact
p3979
aVencounter
p3980
aVlooseness
p3981
aVromp
p3982
aVwork
p3983
aVdrama
p3984
aVturn
p3985
aVfiddle
p3986
aVbet
p3987
aVact
p3988
aVfun
p3989
aVmeet
p3990
aVgambol
p3991
asS'needle'
p3992
(lp3993
Vgoad
p3994
asS'star'
p3995
(lp3996
Vhotshot
p3997
aVsensation
p3998
aVwhiz
p3999
aVheadliner
p4000
aVwiz
p4001
ag3092
aVlead
p4002
aVleading
p4003
aVwizard
p4004
aVgenius
p4005
aVmavin
p4006
aVchampion
p4007
aVasterisk
p4008
aVvirtuoso
p4009
aVmaven
p4010
aVadept
p4011
aVstarring
p4012
aVsuperstar
p4013
aVwhizz
p4014
aVstellar
p4015
aVprima
p4016
aVace
p4017
asS'track'
p4018
(lp4019
g2002
aVracecourse
p4020
aVcut
p4021
aVlead
p4022
aVcourse
p4023
ag2034
aVcartroad
p4024
aVrunway
p4025
aVrail
p4026
aVracetrack
p4027
aVrails
p4028
ag1308
ag3105
aVrunning
p4029
ag1279
ag1729
aVpath
p4030
aVraceway
p4031
aVcross
p4032
ag1283
asS'flute'
p4033
(lp4034
Vfluting
p4035
asS'mouth'
p4036
(lp4037
Vverbalise
p4038
aVsass
p4039
aVsassing
p4040
aVmouthpiece
p4041
aVverbalize
p4042
aVlip
p4043
aVutter
p4044
aVbacktalk
p4045
aVtalk
p4046
aVspeak
p4047
asS'worm'
p4048
(lp4049
Vtwist
p4050
aVwrestle
p4051
aVwrithe
p4052
aVlouse
p4053
aVwriggle
p4054
aVinsect
p4055
aVsquirm
p4056
asS'wind'
p4057
(lp4058
Vwreathe
p4059
aVtwist
p4060
aVwinding
p4061
aVwrap
p4062
aVflatus
p4063
aVscent
p4064
aVwander
p4065
aVtwine
p4066
aVfarting
p4067
aVlead
p4068
ag3094
ag3097
aVroll
p4069
aVjazz
p4070
aVfart
p4071
aVlift
p4072
aVhoist
p4073
aVmalarky
p4074
aVweave
p4075
aVthread
p4076
aVcurve
p4077
aVnothingness
p4078
aVnose
p4079
aVmalarkey
p4080
aVmeander
p4081
ag3109
asS'america'
p4082
(lp4083
VU.S.A.
p4084
aVU.S.
p4085
aVAmerica
p4086
aVUSA
p4087
aVUS
p4088
asS'pool'
p4089
(lp4090
Vpond
p4091
aVpuddle
p4092
aVkitty
p4093
aVconsortium
p4094
aVsyndicate
p4095
asS'cliff'
p4096
(lp4097
Vdrop
p4098
ag2848
asS'ghost'
p4099
(lp4100
Vtrace
p4101
aVghostwriter
p4102
aVghostwrite
p4103
aVhaunt
p4104
aVspectre
p4105
aVshade
p4106
aVspook
p4107
aVtouch
p4108
aVobsess
p4109
aVspecter
p4110
aVwraith
p4111
asS'fighter'
p4112
(lp4113
Vpaladin
p4114
aVhero
p4115
aVchampion
p4116
aVbelligerent
p4117
aVscrapper
p4118
aVbattler
p4119
aVcombatant
p4120
asS'buffalo'
p4121
(lp4122
VBuffalo
p4123
asS'cover'
p4124
(lp4125
g2002
aVdeal
p4126
ag919
ag2992
aVback
p4127
aVembrace
p4128
aVencompass
p4129
aVincubate
p4130
ag926
aVplow
p4131
aVbrood
p4132
aVhide
p4133
aVoverlay
p4134
aVtop
p4135
aVbreed
p4136
ag4032
aVcomprehend
p4137
aVcompensate
p4138
aVscreening
p4139
aVmasking
p4140
aVovercompensate
p4141
aVblanket
p4142
aVtreat
p4143
aVunderwrite
p4144
aVhandle
p4145
aVextend
p4146
ag2017
aVscreen
p4147
aVhatch
p4148
aVshroud
p4149
aVaddress
p4150
aVreport
p4151
aVinsure
p4152
aVcovering
p4153
aVenshroud
p4154
aVcontinue
p4155
asS'disease'
p4156
(lp4157
sS'face'
p4158
(lp4159
Vcase
p4160
aVnerve
p4161
aVcheek
p4162
aVboldness
p4163
aVlook
p4164
aVfount
p4165
aVtypeface
p4166
aVgrimace
p4167
aVaspect
p4168
aVconfront
p4169
aVfront
p4170
aVbrass
p4171
aVfont
p4172
aVexpression
p4173
aVside
p4174
aVpresent
p4175
asS'pipe'
p4176
(lp4177
Vpipage
p4178
aVshrill
p4179
aVtube
p4180
aVpipework
p4181
aVpiping
p4182
aVshriek
p4183
asS'mass'
p4184
(lp4185
g2822
ag2823
aVpeople
p4186
ag2824
ag2825
ag2826
aVmint
p4187
ag2827
ag2828
aVmasses
p4188
ag2829
aVaggregated
p4189
ag2830
ag2831
ag2832
ag2833
ag2835
ag2836
ag2837
ag2838
aVaggregative
p4190
ag2839
aVbulk
p4191
aVMass
p4192
ag2840
aVaggregate
p4193
ag2841
ag2842
aVvolume
p4194
ag2843
aVmultitude
p4195
asS'pupil'
p4196
(lp4197
Veducatee
p4198
aVschoolchild
p4199
aVstudent
p4200
asS'time'
p4201
(lp4202
Vclock
p4203
aVmetre
p4204
aVmeter
p4205
aVclip
p4206
aVsentence
p4207
asS'fair'
p4208
(lp4209
Vsightly
p4210
aVcarnival
p4211
aVjust
p4212
aVfairly
p4213
aVaverage
p4214
aVbonnie
p4215
aVbonny
p4216
aVmiddling
p4217
aVcomely
p4218
aVfairish
p4219
aVreasonable
p4220
aVclean
p4221
aVfunfair
p4222
aVbazaar
p4223
aVevenhandedly
p4224
aVmediocre
p4225
aVhonest
p4226
asS'germany'
p4227
(lp4228
VFRG
p4229
aVDeutschland
p4230
aVGermany
p4231
as.